<?xml version="1.0"?>
<?xml-stylesheet type="text/xsl" href="pdml2html.xsl"?>
<!--
  ~ Copyright (c) 2014 Hewlett-Packard Development Company, L.P.
  ~
  ~ This program and the accompanying materials are made available under the
  ~ terms of the Eclipse Public License v1.0 which accompanies this distribution,
  ~ and is available at http://www.eclipse.org/legal/epl-v10.html
  -->

<!-- You can find pdml2html.xsl in C:\Program Files\Wireshark or at http://anonsvn.wireshark.org/trunk/wireshark/pdml2html.xsl. -->
<pdml version="0" creator="wireshark/1.10.0" time="Mon Sep 23 14:20:39 2013" capture_file="C:\Users\simonh\AppData\Local\Temp\TD_80\qc2d\2c32d5f8\Attach\BUG\141001\BUG_141001_hello_reply_without_Xid.pcap">
<packet>
  <proto name="geninfo" pos="0" showname="General information" size="82">
    <field name="num" pos="0" show="4" showname="Number" value="4" size="82"/>
    <field name="len" pos="0" show="82" showname="Frame Length" value="52" size="82"/>
    <field name="caplen" pos="0" show="82" showname="Captured Length" value="52" size="82"/>
    <field name="timestamp" pos="0" show="Feb  4, 2012 21:50:24.323789000 Pacific Standard Time" showname="Captured Time" value="1328421024.323789000" size="82"/>
  </proto>
  <proto name="frame" showname="Frame 4: 82 bytes on wire (656 bits), 82 bytes captured (656 bits)" size="82" pos="0">
    <field name="frame.encap_type" showname="Encapsulation type: Ethernet (1)" size="0" pos="0" show="1"/>
    <field name="frame.time" showname="Arrival Time: Feb  4, 2012 21:50:24.323789000 Pacific Standard Time" size="0" pos="0" show="Feb  4, 2012 21:50:24.323789000"/>
    <field name="frame.offset_shift" showname="Time shift for this packet: 0.000000000 seconds" size="0" pos="0" show="0.000000000"/>
    <field name="frame.time_epoch" showname="Epoch Time: 1328421024.323789000 seconds" size="0" pos="0" show="1328421024.323789000"/>
    <field name="frame.time_delta" showname="Time delta from previous captured frame: 0.000048000 seconds" size="0" pos="0" show="0.000048000"/>
    <field name="frame.time_delta_displayed" showname="Time delta from previous displayed frame: 0.000000000 seconds" size="0" pos="0" show="0.000000000"/>
    <field name="frame.time_relative" showname="Time since reference or first frame: 0.011206000 seconds" size="0" pos="0" show="0.011206000"/>
    <field name="frame.number" showname="Frame Number: 4" size="0" pos="0" show="4"/>
    <field name="frame.len" showname="Frame Length: 82 bytes (656 bits)" size="0" pos="0" show="82"/>
    <field name="frame.cap_len" showname="Capture Length: 82 bytes (656 bits)" size="0" pos="0" show="82"/>
    <field name="frame.marked" showname="Frame is marked: False" size="0" pos="0" show="0"/>
    <field name="frame.ignored" showname="Frame is ignored: False" size="0" pos="0" show="0"/>
    <field name="frame.protocols" showname="Protocols in frame: eth:ip:tcp:data" size="0" pos="0" show="eth:ip:tcp:data"/>
    <field name="frame.coloring_rule.name" showname="Coloring Rule Name: TCP" size="0" pos="0" show="TCP"/>
    <field name="frame.coloring_rule.string" showname="Coloring Rule String: tcp" size="0" pos="0" show="tcp"/>
  </proto>
  <proto name="eth" showname="Ethernet II, Src: HpnSuppl_f3:48:00 (00:21:f7:f3:48:00), Dst: Vmware_d3:f3:c8 (00:0c:29:d3:f3:c8)" size="14" pos="0">
    <field name="eth.dst" showname="Destination: Vmware_d3:f3:c8 (00:0c:29:d3:f3:c8)" size="6" pos="0" show="00:0c:29:d3:f3:c8" value="000c29d3f3c8">
      <field name="eth.addr" showname="Address: Vmware_d3:f3:c8 (00:0c:29:d3:f3:c8)" size="6" pos="0" show="00:0c:29:d3:f3:c8" value="000c29d3f3c8"/>
      <field name="eth.lg" showname=".... ..0. .... .... .... .... = LG bit: Globally unique address (factory default)" size="3" pos="0" show="0" value="0" unmaskedvalue="000c29"/>
      <field name="eth.ig" showname=".... ...0 .... .... .... .... = IG bit: Individual address (unicast)" size="3" pos="0" show="0" value="0" unmaskedvalue="000c29"/>
    </field>
    <field name="eth.src" showname="Source: HpnSuppl_f3:48:00 (00:21:f7:f3:48:00)" size="6" pos="6" show="00:21:f7:f3:48:00" value="0021f7f34800">
      <field name="eth.addr" showname="Address: HpnSuppl_f3:48:00 (00:21:f7:f3:48:00)" size="6" pos="6" show="00:21:f7:f3:48:00" value="0021f7f34800"/>
      <field name="eth.lg" showname=".... ..0. .... .... .... .... = LG bit: Globally unique address (factory default)" size="3" pos="6" show="0" value="0" unmaskedvalue="0021f7"/>
      <field name="eth.ig" showname=".... ...0 .... .... .... .... = IG bit: Individual address (unicast)" size="3" pos="6" show="0" value="0" unmaskedvalue="0021f7"/>
    </field>
    <field name="eth.type" showname="Type: IP (0x0800)" size="2" pos="12" show="0x0800" value="0800"/>
  </proto>
  <proto name="ip" showname="Internet Protocol Version 4, Src: 172.16.105.101 (172.16.105.101), Dst: 15.146.193.67 (15.146.193.67)" size="20" pos="14">
    <field name="ip.version" showname="Version: 4" size="1" pos="14" show="4" value="45"/>
    <field name="ip.hdr_len" showname="Header length: 20 bytes" size="1" pos="14" show="20" value="45"/>
    <field name="ip.dsfield" showname="Differentiated Services Field: 0x00 (DSCP 0x00: Default; ECN: 0x00: Not-ECT (Not ECN-Capable Transport))" size="1" pos="15" show="0" value="00">
      <field name="ip.dsfield.dscp" showname="0000 00.. = Differentiated Services Codepoint: Default (0x00)" size="1" pos="15" show="0x00" value="0" unmaskedvalue="00"/>
      <field name="ip.dsfield.ecn" showname=".... ..00 = Explicit Congestion Notification: Not-ECT (Not ECN-Capable Transport) (0x00)" size="1" pos="15" show="0x00" value="0" unmaskedvalue="00"/>
    </field>
    <field name="ip.len" showname="Total Length: 68" size="2" pos="16" show="68" value="0044"/>
    <field name="ip.id" showname="Identification: 0x7a6b (31339)" size="2" pos="18" show="0x7a6b" value="7a6b"/>
    <field name="ip.flags" showname="Flags: 0x02 (Don&apos;t Fragment)" size="1" pos="20" show="0x02" value="40">
      <field name="ip.flags.rb" showname="0... .... = Reserved bit: Not set" size="1" pos="20" show="0" value="40"/>
      <field name="ip.flags.df" showname=".1.. .... = Don&apos;t fragment: Set" size="1" pos="20" show="1" value="40"/>
      <field name="ip.flags.mf" showname="..0. .... = More fragments: Not set" size="1" pos="20" show="0" value="40"/>
    </field>
    <field name="ip.frag_offset" showname="Fragment offset: 0" size="2" pos="20" show="0" value="4000"/>
    <field name="ip.ttl" showname="Time to live: 61" size="1" pos="22" show="61" value="3d"/>
    <field name="ip.proto" showname="Protocol: TCP (6)" size="1" pos="23" show="6" value="06"/>
    <field name="ip.checksum" showname="Header checksum: 0xdcfd [correct]" size="2" pos="24" show="0xdcfd" value="dcfd">
      <field name="ip.checksum_good" showname="Good: True" size="2" pos="24" show="1" value="dcfd"/>
      <field name="ip.checksum_bad" showname="Bad: False" size="2" pos="24" show="0" value="dcfd"/>
    </field>
    <field name="ip.src" showname="Source: 172.16.105.101 (172.16.105.101)" size="4" pos="26" show="172.16.105.101" value="ac106965"/>
    <field name="ip.addr" showname="Source or Destination Address: 172.16.105.101 (172.16.105.101)" hide="yes" size="4" pos="26" show="172.16.105.101" value="ac106965"/>
    <field name="ip.src_host" showname="Source Host: 172.16.105.101" hide="yes" size="4" pos="26" show="172.16.105.101" value="ac106965"/>
    <field name="ip.host" showname="Source or Destination Host: 172.16.105.101" hide="yes" size="4" pos="26" show="172.16.105.101" value="ac106965"/>
    <field name="ip.dst" showname="Destination: 15.146.193.67 (15.146.193.67)" size="4" pos="30" show="15.146.193.67" value="0f92c143"/>
    <field name="ip.addr" showname="Source or Destination Address: 15.146.193.67 (15.146.193.67)" hide="yes" size="4" pos="30" show="15.146.193.67" value="0f92c143"/>
    <field name="ip.dst_host" showname="Destination Host: 15.146.193.67" hide="yes" size="4" pos="30" show="15.146.193.67" value="0f92c143"/>
    <field name="ip.host" showname="Source or Destination Host: 15.146.193.67" hide="yes" size="4" pos="30" show="15.146.193.67" value="0f92c143"/>
    <field name="" show="Source GeoIP: Unknown" size="4" pos="26" value="ac106965"/>
    <field name="" show="Destination GeoIP: Unknown" size="4" pos="30" value="0f92c143"/>
  </proto>
  <proto name="tcp" showname="Transmission Control Protocol, Src Port: 56548 (56548), Dst Port: 6633 (6633), Seq: 1, Ack: 1, Len: 16" size="32" pos="34">
    <field name="tcp.srcport" showname="Source port: 56548 (56548)" size="2" pos="34" show="56548" value="dce4"/>
    <field name="tcp.dstport" showname="Destination port: 6633 (6633)" size="2" pos="36" show="6633" value="19e9"/>
    <field name="tcp.port" showname="Source or Destination Port: 56548" hide="yes" size="2" pos="34" show="56548" value="dce4"/>
    <field name="tcp.port" showname="Source or Destination Port: 6633" hide="yes" size="2" pos="36" show="6633" value="19e9"/>
    <field name="tcp.stream" showname="Stream index: 0" size="0" pos="34" show="0"/>
    <field name="tcp.len" showname="TCP Segment Len: 16" hide="yes" size="1" pos="46" show="16" value="80"/>
    <field name="tcp.seq" showname="Sequence number: 1    (relative sequence number)" size="4" pos="38" show="1" value="2b879f2f"/>
    <field name="tcp.nxtseq" showname="Next sequence number: 17    (relative sequence number)" size="0" pos="34" show="17"/>
    <field name="tcp.ack" showname="Acknowledgment number: 1    (relative ack number)" size="4" pos="42" show="1" value="9d90e2d2"/>
    <field name="tcp.hdr_len" showname="Header length: 32 bytes" size="1" pos="46" show="32" value="80"/>
    <field name="tcp.flags" showname="Flags: 0x018 (PSH, ACK)" size="2" pos="46" show="0x0018" value="18" unmaskedvalue="8018">
      <field name="tcp.flags.res" showname="000. .... .... = Reserved: Not set" size="1" pos="46" show="0" value="0" unmaskedvalue="80"/>
      <field name="tcp.flags.ns" showname="...0 .... .... = Nonce: Not set" size="1" pos="46" show="0" value="0" unmaskedvalue="80"/>
      <field name="tcp.flags.cwr" showname=".... 0... .... = Congestion Window Reduced (CWR): Not set" size="1" pos="47" show="0" value="0" unmaskedvalue="18"/>
      <field name="tcp.flags.ecn" showname=".... .0.. .... = ECN-Echo: Not set" size="1" pos="47" show="0" value="0" unmaskedvalue="18"/>
      <field name="tcp.flags.urg" showname=".... ..0. .... = Urgent: Not set" size="1" pos="47" show="0" value="0" unmaskedvalue="18"/>
      <field name="tcp.flags.ack" showname=".... ...1 .... = Acknowledgment: Set" size="1" pos="47" show="1" value="1" unmaskedvalue="18"/>
      <field name="tcp.flags.push" showname=".... .... 1... = Push: Set" size="1" pos="47" show="1" value="1" unmaskedvalue="18"/>
      <field name="tcp.flags.reset" showname=".... .... .0.. = Reset: Not set" size="1" pos="47" show="0" value="0" unmaskedvalue="18"/>
      <field name="tcp.flags.syn" showname=".... .... ..0. = Syn: Not set" size="1" pos="47" show="0" value="0" unmaskedvalue="18"/>
      <field name="tcp.flags.fin" showname=".... .... ...0 = Fin: Not set" size="1" pos="47" show="0" value="0" unmaskedvalue="18"/>
    </field>
    <field name="tcp.window_size_value" showname="Window size value: 33304" size="2" pos="48" show="33304" value="8218"/>
    <field name="tcp.window_size" showname="Calculated window size: 66608" size="2" pos="48" show="66608" value="8218"/>
    <field name="tcp.window_size_scalefactor" showname="Window size scaling factor: 2" size="2" pos="48" show="2" value="8218"/>
    <field name="tcp.checksum" showname="Checksum: 0x43c0 [validation disabled]" size="2" pos="50" show="0x43c0" value="43c0">
      <field name="tcp.checksum_good" showname="Good Checksum: False" size="2" pos="50" show="0" value="43c0"/>
      <field name="tcp.checksum_bad" showname="Bad Checksum: False" size="2" pos="50" show="0" value="43c0"/>
    </field>
    <field name="tcp.options" showname="Options: (12 bytes), No-Operation (NOP), No-Operation (NOP), Timestamps" size="12" pos="54" show="01:01:08:0a:4d:18:32:4a:00:03:03:e7" value="0101080a4d18324a000303e7">
      <field name="" show="No-Operation (NOP)" size="1" pos="54" value="01">
        <field name="ip.opt.type" showname="Type: 1" size="1" pos="54" show="1" value="01">
          <field name="ip.opt.type.copy" showname="0... .... = Copy on fragmentation: No" size="1" pos="54" show="0" value="0" unmaskedvalue="01"/>
          <field name="ip.opt.type.class" showname=".00. .... = Class: Control (0)" size="1" pos="54" show="0" value="0" unmaskedvalue="01"/>
          <field name="ip.opt.type.number" showname="...0 0001 = Number: No-Operation (NOP) (1)" size="1" pos="54" show="1" value="1" unmaskedvalue="01"/>
        </field>
      </field>
      <field name="" show="No-Operation (NOP)" size="1" pos="55" value="01">
        <field name="ip.opt.type" showname="Type: 1" size="1" pos="55" show="1" value="01">
          <field name="ip.opt.type.copy" showname="0... .... = Copy on fragmentation: No" size="1" pos="55" show="0" value="0" unmaskedvalue="01"/>
          <field name="ip.opt.type.class" showname=".00. .... = Class: Control (0)" size="1" pos="55" show="0" value="0" unmaskedvalue="01"/>
          <field name="ip.opt.type.number" showname="...0 0001 = Number: No-Operation (NOP) (1)" size="1" pos="55" show="1" value="1" unmaskedvalue="01"/>
        </field>
      </field>
      <field name="" show="Timestamps: TSval 1293431370, TSecr 197607" size="10" pos="56" value="080a4d18324a000303e7">
        <field name="tcp.option_kind" showname="Kind: Timestamp (8)" size="1" pos="56" show="8" value="08"/>
        <field name="tcp.option_len" showname="Length: 10" size="1" pos="57" show="10" value="0a"/>
        <field name="tcp.options.timestamp.tsval" showname="Timestamp value: 1293431370" size="4" pos="58" show="1293431370" value="4d18324a"/>
        <field name="tcp.options.timestamp.tsecr" showname="Timestamp echo reply: 197607" size="4" pos="62" show="197607" value="000303e7"/>
      </field>
    </field>
    <field name="tcp.analysis" showname="SEQ/ACK analysis" size="0" pos="34" show="" value="">
      <field name="tcp.analysis.bytes_in_flight" showname="Bytes in flight: 16" size="0" pos="34" show="16"/>
    </field>
  </proto>
  <proto name="fake-field-wrapper">
    <field name="data" value="04000010000001220001000800000012">
      <field name="data.data" showname="Data: 04000010000001220001000800000012" size="16" pos="66" show="04:00:00:10:00:00:01:22:00:01:00:08:00:00:00:12" value="04000010000001220001000800000012"/>
      <field name="data.len" showname="Length: 16" size="0" pos="66" show="16"/>
  </field>
</proto>
</packet>

<packet>
  <proto name="geninfo" pos="0" showname="General information" size="82">
    <field name="num" pos="0" show="6" showname="Number" value="6" size="82"/>
    <field name="len" pos="0" show="82" showname="Frame Length" value="52" size="82"/>
    <field name="caplen" pos="0" show="82" showname="Captured Length" value="52" size="82"/>
    <field name="timestamp" pos="0" show="Feb  4, 2012 21:50:24.324944000 Pacific Standard Time" showname="Captured Time" value="1328421024.324944000" size="82"/>
  </proto>
  <proto name="frame" showname="Frame 6: 82 bytes on wire (656 bits), 82 bytes captured (656 bits)" size="82" pos="0">
    <field name="frame.encap_type" showname="Encapsulation type: Ethernet (1)" size="0" pos="0" show="1"/>
    <field name="frame.time" showname="Arrival Time: Feb  4, 2012 21:50:24.324944000 Pacific Standard Time" size="0" pos="0" show="Feb  4, 2012 21:50:24.324944000"/>
    <field name="frame.offset_shift" showname="Time shift for this packet: 0.000000000 seconds" size="0" pos="0" show="0.000000000"/>
    <field name="frame.time_epoch" showname="Epoch Time: 1328421024.324944000 seconds" size="0" pos="0" show="1328421024.324944000"/>
    <field name="frame.time_delta" showname="Time delta from previous captured frame: 0.001147000 seconds" size="0" pos="0" show="0.001147000"/>
    <field name="frame.time_delta_displayed" showname="Time delta from previous displayed frame: 0.001155000 seconds" size="0" pos="0" show="0.001155000"/>
    <field name="frame.time_relative" showname="Time since reference or first frame: 0.012361000 seconds" size="0" pos="0" show="0.012361000"/>
    <field name="frame.number" showname="Frame Number: 6" size="0" pos="0" show="6"/>
    <field name="frame.len" showname="Frame Length: 82 bytes (656 bits)" size="0" pos="0" show="82"/>
    <field name="frame.cap_len" showname="Capture Length: 82 bytes (656 bits)" size="0" pos="0" show="82"/>
    <field name="frame.marked" showname="Frame is marked: False" size="0" pos="0" show="0"/>
    <field name="frame.ignored" showname="Frame is ignored: False" size="0" pos="0" show="0"/>
    <field name="frame.protocols" showname="Protocols in frame: eth:ip:tcp:data" size="0" pos="0" show="eth:ip:tcp:data"/>
    <field name="frame.coloring_rule.name" showname="Coloring Rule Name: TCP" size="0" pos="0" show="TCP"/>
    <field name="frame.coloring_rule.string" showname="Coloring Rule String: tcp" size="0" pos="0" show="tcp"/>
  </proto>
  <proto name="eth" showname="Ethernet II, Src: Vmware_d3:f3:c8 (00:0c:29:d3:f3:c8), Dst: HpnSuppl_f3:48:00 (00:21:f7:f3:48:00)" size="14" pos="0">
    <field name="eth.dst" showname="Destination: HpnSuppl_f3:48:00 (00:21:f7:f3:48:00)" size="6" pos="0" show="00:21:f7:f3:48:00" value="0021f7f34800">
      <field name="eth.addr" showname="Address: HpnSuppl_f3:48:00 (00:21:f7:f3:48:00)" size="6" pos="0" show="00:21:f7:f3:48:00" value="0021f7f34800"/>
      <field name="eth.lg" showname=".... ..0. .... .... .... .... = LG bit: Globally unique address (factory default)" size="3" pos="0" show="0" value="0" unmaskedvalue="0021f7"/>
      <field name="eth.ig" showname=".... ...0 .... .... .... .... = IG bit: Individual address (unicast)" size="3" pos="0" show="0" value="0" unmaskedvalue="0021f7"/>
    </field>
    <field name="eth.src" showname="Source: Vmware_d3:f3:c8 (00:0c:29:d3:f3:c8)" size="6" pos="6" show="00:0c:29:d3:f3:c8" value="000c29d3f3c8">
      <field name="eth.addr" showname="Address: Vmware_d3:f3:c8 (00:0c:29:d3:f3:c8)" size="6" pos="6" show="00:0c:29:d3:f3:c8" value="000c29d3f3c8"/>
      <field name="eth.lg" showname=".... ..0. .... .... .... .... = LG bit: Globally unique address (factory default)" size="3" pos="6" show="0" value="0" unmaskedvalue="000c29"/>
      <field name="eth.ig" showname=".... ...0 .... .... .... .... = IG bit: Individual address (unicast)" size="3" pos="6" show="0" value="0" unmaskedvalue="000c29"/>
    </field>
    <field name="eth.type" showname="Type: IP (0x0800)" size="2" pos="12" show="0x0800" value="0800"/>
  </proto>
  <proto name="ip" showname="Internet Protocol Version 4, Src: 15.146.193.67 (15.146.193.67), Dst: 172.16.105.101 (172.16.105.101)" size="20" pos="14">
    <field name="ip.version" showname="Version: 4" size="1" pos="14" show="4" value="45"/>
    <field name="ip.hdr_len" showname="Header length: 20 bytes" size="1" pos="14" show="20" value="45"/>
    <field name="ip.dsfield" showname="Differentiated Services Field: 0x00 (DSCP 0x00: Default; ECN: 0x00: Not-ECT (Not ECN-Capable Transport))" size="1" pos="15" show="0" value="00">
      <field name="ip.dsfield.dscp" showname="0000 00.. = Differentiated Services Codepoint: Default (0x00)" size="1" pos="15" show="0x00" value="0" unmaskedvalue="00"/>
      <field name="ip.dsfield.ecn" showname=".... ..00 = Explicit Congestion Notification: Not-ECT (Not ECN-Capable Transport) (0x00)" size="1" pos="15" show="0x00" value="0" unmaskedvalue="00"/>
    </field>
    <field name="ip.len" showname="Total Length: 68" size="2" pos="16" show="68" value="0044"/>
    <field name="ip.id" showname="Identification: 0xe139 (57657)" size="2" pos="18" show="0xe139" value="e139"/>
    <field name="ip.flags" showname="Flags: 0x02 (Don&apos;t Fragment)" size="1" pos="20" show="0x02" value="40">
      <field name="ip.flags.rb" showname="0... .... = Reserved bit: Not set" size="1" pos="20" show="0" value="40"/>
      <field name="ip.flags.df" showname=".1.. .... = Don&apos;t fragment: Set" size="1" pos="20" show="1" value="40"/>
      <field name="ip.flags.mf" showname="..0. .... = More fragments: Not set" size="1" pos="20" show="0" value="40"/>
    </field>
    <field name="ip.frag_offset" showname="Fragment offset: 0" size="2" pos="20" show="0" value="4000"/>
    <field name="ip.ttl" showname="Time to live: 64" size="1" pos="22" show="64" value="40"/>
    <field name="ip.proto" showname="Protocol: TCP (6)" size="1" pos="23" show="6" value="06"/>
    <field name="ip.checksum" showname="Header checksum: 0x732f [correct]" size="2" pos="24" show="0x732f" value="732f">
      <field name="ip.checksum_good" showname="Good: True" size="2" pos="24" show="1" value="732f"/>
      <field name="ip.checksum_bad" showname="Bad: False" size="2" pos="24" show="0" value="732f"/>
    </field>
    <field name="ip.src" showname="Source: 15.146.193.67 (15.146.193.67)" size="4" pos="26" show="15.146.193.67" value="0f92c143"/>
    <field name="ip.addr" showname="Source or Destination Address: 15.146.193.67 (15.146.193.67)" hide="yes" size="4" pos="26" show="15.146.193.67" value="0f92c143"/>
    <field name="ip.src_host" showname="Source Host: 15.146.193.67" hide="yes" size="4" pos="26" show="15.146.193.67" value="0f92c143"/>
    <field name="ip.host" showname="Source or Destination Host: 15.146.193.67" hide="yes" size="4" pos="26" show="15.146.193.67" value="0f92c143"/>
    <field name="ip.dst" showname="Destination: 172.16.105.101 (172.16.105.101)" size="4" pos="30" show="172.16.105.101" value="ac106965"/>
    <field name="ip.addr" showname="Source or Destination Address: 172.16.105.101 (172.16.105.101)" hide="yes" size="4" pos="30" show="172.16.105.101" value="ac106965"/>
    <field name="ip.dst_host" showname="Destination Host: 172.16.105.101" hide="yes" size="4" pos="30" show="172.16.105.101" value="ac106965"/>
    <field name="ip.host" showname="Source or Destination Host: 172.16.105.101" hide="yes" size="4" pos="30" show="172.16.105.101" value="ac106965"/>
    <field name="" show="Source GeoIP: Unknown" size="4" pos="26" value="0f92c143"/>
    <field name="" show="Destination GeoIP: Unknown" size="4" pos="30" value="ac106965"/>
  </proto>
  <proto name="tcp" showname="Transmission Control Protocol, Src Port: 6633 (6633), Dst Port: 56548 (56548), Seq: 1, Ack: 17, Len: 16" size="32" pos="34">
    <field name="tcp.srcport" showname="Source port: 6633 (6633)" size="2" pos="34" show="6633" value="19e9"/>
    <field name="tcp.dstport" showname="Destination port: 56548 (56548)" size="2" pos="36" show="56548" value="dce4"/>
    <field name="tcp.port" showname="Source or Destination Port: 6633" hide="yes" size="2" pos="34" show="6633" value="19e9"/>
    <field name="tcp.port" showname="Source or Destination Port: 56548" hide="yes" size="2" pos="36" show="56548" value="dce4"/>
    <field name="tcp.stream" showname="Stream index: 0" size="0" pos="34" show="0"/>
    <field name="tcp.len" showname="TCP Segment Len: 16" hide="yes" size="1" pos="46" show="16" value="80"/>
    <field name="tcp.seq" showname="Sequence number: 1    (relative sequence number)" size="4" pos="38" show="1" value="9d90e2d2"/>
    <field name="tcp.nxtseq" showname="Next sequence number: 17    (relative sequence number)" size="0" pos="34" show="17"/>
    <field name="tcp.ack" showname="Acknowledgment number: 17    (relative ack number)" size="4" pos="42" show="17" value="2b879f3f"/>
    <field name="tcp.hdr_len" showname="Header length: 32 bytes" size="1" pos="46" show="32" value="80"/>
    <field name="tcp.flags" showname="Flags: 0x018 (PSH, ACK)" size="2" pos="46" show="0x0018" value="18" unmaskedvalue="8018">
      <field name="tcp.flags.res" showname="000. .... .... = Reserved: Not set" size="1" pos="46" show="0" value="0" unmaskedvalue="80"/>
      <field name="tcp.flags.ns" showname="...0 .... .... = Nonce: Not set" size="1" pos="46" show="0" value="0" unmaskedvalue="80"/>
      <field name="tcp.flags.cwr" showname=".... 0... .... = Congestion Window Reduced (CWR): Not set" size="1" pos="47" show="0" value="0" unmaskedvalue="18"/>
      <field name="tcp.flags.ecn" showname=".... .0.. .... = ECN-Echo: Not set" size="1" pos="47" show="0" value="0" unmaskedvalue="18"/>
      <field name="tcp.flags.urg" showname=".... ..0. .... = Urgent: Not set" size="1" pos="47" show="0" value="0" unmaskedvalue="18"/>
      <field name="tcp.flags.ack" showname=".... ...1 .... = Acknowledgment: Set" size="1" pos="47" show="1" value="1" unmaskedvalue="18"/>
      <field name="tcp.flags.push" showname=".... .... 1... = Push: Set" size="1" pos="47" show="1" value="1" unmaskedvalue="18"/>
      <field name="tcp.flags.reset" showname=".... .... .0.. = Reset: Not set" size="1" pos="47" show="0" value="0" unmaskedvalue="18"/>
      <field name="tcp.flags.syn" showname=".... .... ..0. = Syn: Not set" size="1" pos="47" show="0" value="0" unmaskedvalue="18"/>
      <field name="tcp.flags.fin" showname=".... .... ...0 = Fin: Not set" size="1" pos="47" show="0" value="0" unmaskedvalue="18"/>
    </field>
    <field name="tcp.window_size_value" showname="Window size value: 227" size="2" pos="48" show="227" value="00e3"/>
    <field name="tcp.window_size" showname="Calculated window size: 14528" size="2" pos="48" show="14528" value="00e3"/>
    <field name="tcp.window_size_scalefactor" showname="Window size scaling factor: 64" size="2" pos="48" show="64" value="00e3"/>
    <field name="tcp.checksum" showname="Checksum: 0xe681 [validation disabled]" size="2" pos="50" show="0xe681" value="e681">
      <field name="tcp.checksum_good" showname="Good Checksum: False" size="2" pos="50" show="0" value="e681"/>
      <field name="tcp.checksum_bad" showname="Bad Checksum: False" size="2" pos="50" show="0" value="e681"/>
    </field>
    <field name="tcp.options" showname="Options: (12 bytes), No-Operation (NOP), No-Operation (NOP), Timestamps" size="12" pos="54" show="01:01:08:0a:00:03:03:ea:4d:18:32:4a" value="0101080a000303ea4d18324a">
      <field name="" show="No-Operation (NOP)" size="1" pos="54" value="01">
        <field name="ip.opt.type" showname="Type: 1" size="1" pos="54" show="1" value="01">
          <field name="ip.opt.type.copy" showname="0... .... = Copy on fragmentation: No" size="1" pos="54" show="0" value="0" unmaskedvalue="01"/>
          <field name="ip.opt.type.class" showname=".00. .... = Class: Control (0)" size="1" pos="54" show="0" value="0" unmaskedvalue="01"/>
          <field name="ip.opt.type.number" showname="...0 0001 = Number: No-Operation (NOP) (1)" size="1" pos="54" show="1" value="1" unmaskedvalue="01"/>
        </field>
      </field>
      <field name="" show="No-Operation (NOP)" size="1" pos="55" value="01">
        <field name="ip.opt.type" showname="Type: 1" size="1" pos="55" show="1" value="01">
          <field name="ip.opt.type.copy" showname="0... .... = Copy on fragmentation: No" size="1" pos="55" show="0" value="0" unmaskedvalue="01"/>
          <field name="ip.opt.type.class" showname=".00. .... = Class: Control (0)" size="1" pos="55" show="0" value="0" unmaskedvalue="01"/>
          <field name="ip.opt.type.number" showname="...0 0001 = Number: No-Operation (NOP) (1)" size="1" pos="55" show="1" value="1" unmaskedvalue="01"/>
        </field>
      </field>
      <field name="" show="Timestamps: TSval 197610, TSecr 1293431370" size="10" pos="56" value="080a000303ea4d18324a">
        <field name="tcp.option_kind" showname="Kind: Timestamp (8)" size="1" pos="56" show="8" value="08"/>
        <field name="tcp.option_len" showname="Length: 10" size="1" pos="57" show="10" value="0a"/>
        <field name="tcp.options.timestamp.tsval" showname="Timestamp value: 197610" size="4" pos="58" show="197610" value="000303ea"/>
        <field name="tcp.options.timestamp.tsecr" showname="Timestamp echo reply: 1293431370" size="4" pos="62" show="1293431370" value="4d18324a"/>
      </field>
    </field>
    <field name="tcp.analysis" showname="SEQ/ACK analysis" size="0" pos="34" show="" value="">
      <field name="tcp.analysis.bytes_in_flight" showname="Bytes in flight: 16" size="0" pos="34" show="16"/>
    </field>
  </proto>
  <proto name="fake-field-wrapper">
    <field name="data" value="04000010000000000001000800000012">
      <field name="data.data" showname="Data: 04000010000000000001000800000012" size="16" pos="66" show="04:00:00:10:00:00:00:00:00:01:00:08:00:00:00:12" value="04000010000000000001000800000012"/>
      <field name="data.len" showname="Length: 16" size="0" pos="66" show="16"/>
  </field>
</proto>
</packet>

<packet>
  <proto name="geninfo" pos="0" showname="General information" size="74">
    <field name="num" pos="0" show="8" showname="Number" value="8" size="74"/>
    <field name="len" pos="0" show="74" showname="Frame Length" value="4a" size="74"/>
    <field name="caplen" pos="0" show="74" showname="Captured Length" value="4a" size="74"/>
    <field name="timestamp" pos="0" show="Feb  4, 2012 21:50:24.518350000 Pacific Standard Time" showname="Captured Time" value="1328421024.518350000" size="74"/>
  </proto>
  <proto name="frame" showname="Frame 8: 74 bytes on wire (592 bits), 74 bytes captured (592 bits)" size="74" pos="0">
    <field name="frame.encap_type" showname="Encapsulation type: Ethernet (1)" size="0" pos="0" show="1"/>
    <field name="frame.time" showname="Arrival Time: Feb  4, 2012 21:50:24.518350000 Pacific Standard Time" size="0" pos="0" show="Feb  4, 2012 21:50:24.518350000"/>
    <field name="frame.offset_shift" showname="Time shift for this packet: 0.000000000 seconds" size="0" pos="0" show="0.000000000"/>
    <field name="frame.time_epoch" showname="Epoch Time: 1328421024.518350000 seconds" size="0" pos="0" show="1328421024.518350000"/>
    <field name="frame.time_delta" showname="Time delta from previous captured frame: 0.000026000 seconds" size="0" pos="0" show="0.000026000"/>
    <field name="frame.time_delta_displayed" showname="Time delta from previous displayed frame: 0.193406000 seconds" size="0" pos="0" show="0.193406000"/>
    <field name="frame.time_relative" showname="Time since reference or first frame: 0.205767000 seconds" size="0" pos="0" show="0.205767000"/>
    <field name="frame.number" showname="Frame Number: 8" size="0" pos="0" show="8"/>
    <field name="frame.len" showname="Frame Length: 74 bytes (592 bits)" size="0" pos="0" show="74"/>
    <field name="frame.cap_len" showname="Capture Length: 74 bytes (592 bits)" size="0" pos="0" show="74"/>
    <field name="frame.marked" showname="Frame is marked: False" size="0" pos="0" show="0"/>
    <field name="frame.ignored" showname="Frame is ignored: False" size="0" pos="0" show="0"/>
    <field name="frame.protocols" showname="Protocols in frame: eth:ip:tcp:data" size="0" pos="0" show="eth:ip:tcp:data"/>
    <field name="frame.coloring_rule.name" showname="Coloring Rule Name: TCP" size="0" pos="0" show="TCP"/>
    <field name="frame.coloring_rule.string" showname="Coloring Rule String: tcp" size="0" pos="0" show="tcp"/>
  </proto>
  <proto name="eth" showname="Ethernet II, Src: Vmware_d3:f3:c8 (00:0c:29:d3:f3:c8), Dst: HpnSuppl_f3:48:00 (00:21:f7:f3:48:00)" size="14" pos="0">
    <field name="eth.dst" showname="Destination: HpnSuppl_f3:48:00 (00:21:f7:f3:48:00)" size="6" pos="0" show="00:21:f7:f3:48:00" value="0021f7f34800">
      <field name="eth.addr" showname="Address: HpnSuppl_f3:48:00 (00:21:f7:f3:48:00)" size="6" pos="0" show="00:21:f7:f3:48:00" value="0021f7f34800"/>
      <field name="eth.lg" showname=".... ..0. .... .... .... .... = LG bit: Globally unique address (factory default)" size="3" pos="0" show="0" value="0" unmaskedvalue="0021f7"/>
      <field name="eth.ig" showname=".... ...0 .... .... .... .... = IG bit: Individual address (unicast)" size="3" pos="0" show="0" value="0" unmaskedvalue="0021f7"/>
    </field>
    <field name="eth.src" showname="Source: Vmware_d3:f3:c8 (00:0c:29:d3:f3:c8)" size="6" pos="6" show="00:0c:29:d3:f3:c8" value="000c29d3f3c8">
      <field name="eth.addr" showname="Address: Vmware_d3:f3:c8 (00:0c:29:d3:f3:c8)" size="6" pos="6" show="00:0c:29:d3:f3:c8" value="000c29d3f3c8"/>
      <field name="eth.lg" showname=".... ..0. .... .... .... .... = LG bit: Globally unique address (factory default)" size="3" pos="6" show="0" value="0" unmaskedvalue="000c29"/>
      <field name="eth.ig" showname=".... ...0 .... .... .... .... = IG bit: Individual address (unicast)" size="3" pos="6" show="0" value="0" unmaskedvalue="000c29"/>
    </field>
    <field name="eth.type" showname="Type: IP (0x0800)" size="2" pos="12" show="0x0800" value="0800"/>
  </proto>
  <proto name="ip" showname="Internet Protocol Version 4, Src: 15.146.193.67 (15.146.193.67), Dst: 172.16.105.101 (172.16.105.101)" size="20" pos="14">
    <field name="ip.version" showname="Version: 4" size="1" pos="14" show="4" value="45"/>
    <field name="ip.hdr_len" showname="Header length: 20 bytes" size="1" pos="14" show="20" value="45"/>
    <field name="ip.dsfield" showname="Differentiated Services Field: 0x00 (DSCP 0x00: Default; ECN: 0x00: Not-ECT (Not ECN-Capable Transport))" size="1" pos="15" show="0" value="00">
      <field name="ip.dsfield.dscp" showname="0000 00.. = Differentiated Services Codepoint: Default (0x00)" size="1" pos="15" show="0x00" value="0" unmaskedvalue="00"/>
      <field name="ip.dsfield.ecn" showname=".... ..00 = Explicit Congestion Notification: Not-ECT (Not ECN-Capable Transport) (0x00)" size="1" pos="15" show="0x00" value="0" unmaskedvalue="00"/>
    </field>
    <field name="ip.len" showname="Total Length: 60" size="2" pos="16" show="60" value="003c"/>
    <field name="ip.id" showname="Identification: 0xe13a (57658)" size="2" pos="18" show="0xe13a" value="e13a"/>
    <field name="ip.flags" showname="Flags: 0x02 (Don&apos;t Fragment)" size="1" pos="20" show="0x02" value="40">
      <field name="ip.flags.rb" showname="0... .... = Reserved bit: Not set" size="1" pos="20" show="0" value="40"/>
      <field name="ip.flags.df" showname=".1.. .... = Don&apos;t fragment: Set" size="1" pos="20" show="1" value="40"/>
      <field name="ip.flags.mf" showname="..0. .... = More fragments: Not set" size="1" pos="20" show="0" value="40"/>
    </field>
    <field name="ip.frag_offset" showname="Fragment offset: 0" size="2" pos="20" show="0" value="4000"/>
    <field name="ip.ttl" showname="Time to live: 64" size="1" pos="22" show="64" value="40"/>
    <field name="ip.proto" showname="Protocol: TCP (6)" size="1" pos="23" show="6" value="06"/>
    <field name="ip.checksum" showname="Header checksum: 0x7336 [correct]" size="2" pos="24" show="0x7336" value="7336">
      <field name="ip.checksum_good" showname="Good: True" size="2" pos="24" show="1" value="7336"/>
      <field name="ip.checksum_bad" showname="Bad: False" size="2" pos="24" show="0" value="7336"/>
    </field>
    <field name="ip.src" showname="Source: 15.146.193.67 (15.146.193.67)" size="4" pos="26" show="15.146.193.67" value="0f92c143"/>
    <field name="ip.addr" showname="Source or Destination Address: 15.146.193.67 (15.146.193.67)" hide="yes" size="4" pos="26" show="15.146.193.67" value="0f92c143"/>
    <field name="ip.src_host" showname="Source Host: 15.146.193.67" hide="yes" size="4" pos="26" show="15.146.193.67" value="0f92c143"/>
    <field name="ip.host" showname="Source or Destination Host: 15.146.193.67" hide="yes" size="4" pos="26" show="15.146.193.67" value="0f92c143"/>
    <field name="ip.dst" showname="Destination: 172.16.105.101 (172.16.105.101)" size="4" pos="30" show="172.16.105.101" value="ac106965"/>
    <field name="ip.addr" showname="Source or Destination Address: 172.16.105.101 (172.16.105.101)" hide="yes" size="4" pos="30" show="172.16.105.101" value="ac106965"/>
    <field name="ip.dst_host" showname="Destination Host: 172.16.105.101" hide="yes" size="4" pos="30" show="172.16.105.101" value="ac106965"/>
    <field name="ip.host" showname="Source or Destination Host: 172.16.105.101" hide="yes" size="4" pos="30" show="172.16.105.101" value="ac106965"/>
    <field name="" show="Source GeoIP: Unknown" size="4" pos="26" value="0f92c143"/>
    <field name="" show="Destination GeoIP: Unknown" size="4" pos="30" value="ac106965"/>
  </proto>
  <proto name="tcp" showname="Transmission Control Protocol, Src Port: 6633 (6633), Dst Port: 56548 (56548), Seq: 17, Ack: 17, Len: 8" size="32" pos="34">
    <field name="tcp.srcport" showname="Source port: 6633 (6633)" size="2" pos="34" show="6633" value="19e9"/>
    <field name="tcp.dstport" showname="Destination port: 56548 (56548)" size="2" pos="36" show="56548" value="dce4"/>
    <field name="tcp.port" showname="Source or Destination Port: 6633" hide="yes" size="2" pos="34" show="6633" value="19e9"/>
    <field name="tcp.port" showname="Source or Destination Port: 56548" hide="yes" size="2" pos="36" show="56548" value="dce4"/>
    <field name="tcp.stream" showname="Stream index: 0" size="0" pos="34" show="0"/>
    <field name="tcp.len" showname="TCP Segment Len: 8" hide="yes" size="1" pos="46" show="8" value="80"/>
    <field name="tcp.seq" showname="Sequence number: 17    (relative sequence number)" size="4" pos="38" show="17" value="9d90e2e2"/>
    <field name="tcp.nxtseq" showname="Next sequence number: 25    (relative sequence number)" size="0" pos="34" show="25"/>
    <field name="tcp.ack" showname="Acknowledgment number: 17    (relative ack number)" size="4" pos="42" show="17" value="2b879f3f"/>
    <field name="tcp.hdr_len" showname="Header length: 32 bytes" size="1" pos="46" show="32" value="80"/>
    <field name="tcp.flags" showname="Flags: 0x018 (PSH, ACK)" size="2" pos="46" show="0x0018" value="18" unmaskedvalue="8018">
      <field name="tcp.flags.res" showname="000. .... .... = Reserved: Not set" size="1" pos="46" show="0" value="0" unmaskedvalue="80"/>
      <field name="tcp.flags.ns" showname="...0 .... .... = Nonce: Not set" size="1" pos="46" show="0" value="0" unmaskedvalue="80"/>
      <field name="tcp.flags.cwr" showname=".... 0... .... = Congestion Window Reduced (CWR): Not set" size="1" pos="47" show="0" value="0" unmaskedvalue="18"/>
      <field name="tcp.flags.ecn" showname=".... .0.. .... = ECN-Echo: Not set" size="1" pos="47" show="0" value="0" unmaskedvalue="18"/>
      <field name="tcp.flags.urg" showname=".... ..0. .... = Urgent: Not set" size="1" pos="47" show="0" value="0" unmaskedvalue="18"/>
      <field name="tcp.flags.ack" showname=".... ...1 .... = Acknowledgment: Set" size="1" pos="47" show="1" value="1" unmaskedvalue="18"/>
      <field name="tcp.flags.push" showname=".... .... 1... = Push: Set" size="1" pos="47" show="1" value="1" unmaskedvalue="18"/>
      <field name="tcp.flags.reset" showname=".... .... .0.. = Reset: Not set" size="1" pos="47" show="0" value="0" unmaskedvalue="18"/>
      <field name="tcp.flags.syn" showname=".... .... ..0. = Syn: Not set" size="1" pos="47" show="0" value="0" unmaskedvalue="18"/>
      <field name="tcp.flags.fin" showname=".... .... ...0 = Fin: Not set" size="1" pos="47" show="0" value="0" unmaskedvalue="18"/>
    </field>
    <field name="tcp.window_size_value" showname="Window size value: 227" size="2" pos="48" show="227" value="00e3"/>
    <field name="tcp.window_size" showname="Calculated window size: 14528" size="2" pos="48" show="14528" value="00e3"/>
    <field name="tcp.window_size_scalefactor" showname="Window size scaling factor: 64" size="2" pos="48" show="64" value="00e3"/>
    <field name="tcp.checksum" showname="Checksum: 0xe679 [validation disabled]" size="2" pos="50" show="0xe679" value="e679">
      <field name="tcp.checksum_good" showname="Good Checksum: False" size="2" pos="50" show="0" value="e679"/>
      <field name="tcp.checksum_bad" showname="Bad Checksum: False" size="2" pos="50" show="0" value="e679"/>
    </field>
    <field name="tcp.options" showname="Options: (12 bytes), No-Operation (NOP), No-Operation (NOP), Timestamps" size="12" pos="54" show="01:01:08:0a:00:03:04:1a:4d:18:33:12" value="0101080a0003041a4d183312">
      <field name="" show="No-Operation (NOP)" size="1" pos="54" value="01">
        <field name="ip.opt.type" showname="Type: 1" size="1" pos="54" show="1" value="01">
          <field name="ip.opt.type.copy" showname="0... .... = Copy on fragmentation: No" size="1" pos="54" show="0" value="0" unmaskedvalue="01"/>
          <field name="ip.opt.type.class" showname=".00. .... = Class: Control (0)" size="1" pos="54" show="0" value="0" unmaskedvalue="01"/>
          <field name="ip.opt.type.number" showname="...0 0001 = Number: No-Operation (NOP) (1)" size="1" pos="54" show="1" value="1" unmaskedvalue="01"/>
        </field>
      </field>
      <field name="" show="No-Operation (NOP)" size="1" pos="55" value="01">
        <field name="ip.opt.type" showname="Type: 1" size="1" pos="55" show="1" value="01">
          <field name="ip.opt.type.copy" showname="0... .... = Copy on fragmentation: No" size="1" pos="55" show="0" value="0" unmaskedvalue="01"/>
          <field name="ip.opt.type.class" showname=".00. .... = Class: Control (0)" size="1" pos="55" show="0" value="0" unmaskedvalue="01"/>
          <field name="ip.opt.type.number" showname="...0 0001 = Number: No-Operation (NOP) (1)" size="1" pos="55" show="1" value="1" unmaskedvalue="01"/>
        </field>
      </field>
      <field name="" show="Timestamps: TSval 197658, TSecr 1293431570" size="10" pos="56" value="080a0003041a4d183312">
        <field name="tcp.option_kind" showname="Kind: Timestamp (8)" size="1" pos="56" show="8" value="08"/>
        <field name="tcp.option_len" showname="Length: 10" size="1" pos="57" show="10" value="0a"/>
        <field name="tcp.options.timestamp.tsval" showname="Timestamp value: 197658" size="4" pos="58" show="197658" value="0003041a"/>
        <field name="tcp.options.timestamp.tsecr" showname="Timestamp echo reply: 1293431570" size="4" pos="62" show="1293431570" value="4d183312"/>
      </field>
    </field>
    <field name="tcp.analysis" showname="SEQ/ACK analysis" size="0" pos="34" show="" value="">
      <field name="tcp.analysis.bytes_in_flight" showname="Bytes in flight: 8" size="0" pos="34" show="8"/>
    </field>
  </proto>
  <proto name="fake-field-wrapper">
    <field name="data" value="040500080000042e">
      <field name="data.data" showname="Data: 040500080000042e" size="8" pos="66" show="04:05:00:08:00:00:04:2e" value="040500080000042e"/>
      <field name="data.len" showname="Length: 8" size="0" pos="66" show="8"/>
  </field>
</proto>
</packet>

<packet>
  <proto name="geninfo" pos="0" showname="General information" size="98">
    <field name="num" pos="0" show="10" showname="Number" value="a" size="98"/>
    <field name="len" pos="0" show="98" showname="Frame Length" value="62" size="98"/>
    <field name="caplen" pos="0" show="98" showname="Captured Length" value="62" size="98"/>
    <field name="timestamp" pos="0" show="Feb  4, 2012 21:50:25.328281000 Pacific Standard Time" showname="Captured Time" value="1328421025.328281000" size="98"/>
  </proto>
  <proto name="frame" showname="Frame 10: 98 bytes on wire (784 bits), 98 bytes captured (784 bits)" size="98" pos="0">
    <field name="frame.encap_type" showname="Encapsulation type: Ethernet (1)" size="0" pos="0" show="1"/>
    <field name="frame.time" showname="Arrival Time: Feb  4, 2012 21:50:25.328281000 Pacific Standard Time" size="0" pos="0" show="Feb  4, 2012 21:50:25.328281000"/>
    <field name="frame.offset_shift" showname="Time shift for this packet: 0.000000000 seconds" size="0" pos="0" show="0.000000000"/>
    <field name="frame.time_epoch" showname="Epoch Time: 1328421025.328281000 seconds" size="0" pos="0" show="1328421025.328281000"/>
    <field name="frame.time_delta" showname="Time delta from previous captured frame: 0.609828000 seconds" size="0" pos="0" show="0.609828000"/>
    <field name="frame.time_delta_displayed" showname="Time delta from previous displayed frame: 0.809931000 seconds" size="0" pos="0" show="0.809931000"/>
    <field name="frame.time_relative" showname="Time since reference or first frame: 1.015698000 seconds" size="0" pos="0" show="1.015698000"/>
    <field name="frame.number" showname="Frame Number: 10" size="0" pos="0" show="10"/>
    <field name="frame.len" showname="Frame Length: 98 bytes (784 bits)" size="0" pos="0" show="98"/>
    <field name="frame.cap_len" showname="Capture Length: 98 bytes (784 bits)" size="0" pos="0" show="98"/>
    <field name="frame.marked" showname="Frame is marked: False" size="0" pos="0" show="0"/>
    <field name="frame.ignored" showname="Frame is ignored: False" size="0" pos="0" show="0"/>
    <field name="frame.protocols" showname="Protocols in frame: eth:ip:tcp:data" size="0" pos="0" show="eth:ip:tcp:data"/>
    <field name="frame.coloring_rule.name" showname="Coloring Rule Name: TCP" size="0" pos="0" show="TCP"/>
    <field name="frame.coloring_rule.string" showname="Coloring Rule String: tcp" size="0" pos="0" show="tcp"/>
  </proto>
  <proto name="eth" showname="Ethernet II, Src: HpnSuppl_f3:48:00 (00:21:f7:f3:48:00), Dst: Vmware_d3:f3:c8 (00:0c:29:d3:f3:c8)" size="14" pos="0">
    <field name="eth.dst" showname="Destination: Vmware_d3:f3:c8 (00:0c:29:d3:f3:c8)" size="6" pos="0" show="00:0c:29:d3:f3:c8" value="000c29d3f3c8">
      <field name="eth.addr" showname="Address: Vmware_d3:f3:c8 (00:0c:29:d3:f3:c8)" size="6" pos="0" show="00:0c:29:d3:f3:c8" value="000c29d3f3c8"/>
      <field name="eth.lg" showname=".... ..0. .... .... .... .... = LG bit: Globally unique address (factory default)" size="3" pos="0" show="0" value="0" unmaskedvalue="000c29"/>
      <field name="eth.ig" showname=".... ...0 .... .... .... .... = IG bit: Individual address (unicast)" size="3" pos="0" show="0" value="0" unmaskedvalue="000c29"/>
    </field>
    <field name="eth.src" showname="Source: HpnSuppl_f3:48:00 (00:21:f7:f3:48:00)" size="6" pos="6" show="00:21:f7:f3:48:00" value="0021f7f34800">
      <field name="eth.addr" showname="Address: HpnSuppl_f3:48:00 (00:21:f7:f3:48:00)" size="6" pos="6" show="00:21:f7:f3:48:00" value="0021f7f34800"/>
      <field name="eth.lg" showname=".... ..0. .... .... .... .... = LG bit: Globally unique address (factory default)" size="3" pos="6" show="0" value="0" unmaskedvalue="0021f7"/>
      <field name="eth.ig" showname=".... ...0 .... .... .... .... = IG bit: Individual address (unicast)" size="3" pos="6" show="0" value="0" unmaskedvalue="0021f7"/>
    </field>
    <field name="eth.type" showname="Type: IP (0x0800)" size="2" pos="12" show="0x0800" value="0800"/>
  </proto>
  <proto name="ip" showname="Internet Protocol Version 4, Src: 172.16.105.101 (172.16.105.101), Dst: 15.146.193.67 (15.146.193.67)" size="20" pos="14">
    <field name="ip.version" showname="Version: 4" size="1" pos="14" show="4" value="45"/>
    <field name="ip.hdr_len" showname="Header length: 20 bytes" size="1" pos="14" show="20" value="45"/>
    <field name="ip.dsfield" showname="Differentiated Services Field: 0x00 (DSCP 0x00: Default; ECN: 0x00: Not-ECT (Not ECN-Capable Transport))" size="1" pos="15" show="0" value="00">
      <field name="ip.dsfield.dscp" showname="0000 00.. = Differentiated Services Codepoint: Default (0x00)" size="1" pos="15" show="0x00" value="0" unmaskedvalue="00"/>
      <field name="ip.dsfield.ecn" showname=".... ..00 = Explicit Congestion Notification: Not-ECT (Not ECN-Capable Transport) (0x00)" size="1" pos="15" show="0x00" value="0" unmaskedvalue="00"/>
    </field>
    <field name="ip.len" showname="Total Length: 84" size="2" pos="16" show="84" value="0054"/>
    <field name="ip.id" showname="Identification: 0x7a70 (31344)" size="2" pos="18" show="0x7a70" value="7a70"/>
    <field name="ip.flags" showname="Flags: 0x02 (Don&apos;t Fragment)" size="1" pos="20" show="0x02" value="40">
      <field name="ip.flags.rb" showname="0... .... = Reserved bit: Not set" size="1" pos="20" show="0" value="40"/>
      <field name="ip.flags.df" showname=".1.. .... = Don&apos;t fragment: Set" size="1" pos="20" show="1" value="40"/>
      <field name="ip.flags.mf" showname="..0. .... = More fragments: Not set" size="1" pos="20" show="0" value="40"/>
    </field>
    <field name="ip.frag_offset" showname="Fragment offset: 0" size="2" pos="20" show="0" value="4000"/>
    <field name="ip.ttl" showname="Time to live: 61" size="1" pos="22" show="61" value="3d"/>
    <field name="ip.proto" showname="Protocol: TCP (6)" size="1" pos="23" show="6" value="06"/>
    <field name="ip.checksum" showname="Header checksum: 0xdce8 [correct]" size="2" pos="24" show="0xdce8" value="dce8">
      <field name="ip.checksum_good" showname="Good: True" size="2" pos="24" show="1" value="dce8"/>
      <field name="ip.checksum_bad" showname="Bad: False" size="2" pos="24" show="0" value="dce8"/>
    </field>
    <field name="ip.src" showname="Source: 172.16.105.101 (172.16.105.101)" size="4" pos="26" show="172.16.105.101" value="ac106965"/>
    <field name="ip.addr" showname="Source or Destination Address: 172.16.105.101 (172.16.105.101)" hide="yes" size="4" pos="26" show="172.16.105.101" value="ac106965"/>
    <field name="ip.src_host" showname="Source Host: 172.16.105.101" hide="yes" size="4" pos="26" show="172.16.105.101" value="ac106965"/>
    <field name="ip.host" showname="Source or Destination Host: 172.16.105.101" hide="yes" size="4" pos="26" show="172.16.105.101" value="ac106965"/>
    <field name="ip.dst" showname="Destination: 15.146.193.67 (15.146.193.67)" size="4" pos="30" show="15.146.193.67" value="0f92c143"/>
    <field name="ip.addr" showname="Source or Destination Address: 15.146.193.67 (15.146.193.67)" hide="yes" size="4" pos="30" show="15.146.193.67" value="0f92c143"/>
    <field name="ip.dst_host" showname="Destination Host: 15.146.193.67" hide="yes" size="4" pos="30" show="15.146.193.67" value="0f92c143"/>
    <field name="ip.host" showname="Source or Destination Host: 15.146.193.67" hide="yes" size="4" pos="30" show="15.146.193.67" value="0f92c143"/>
    <field name="" show="Source GeoIP: Unknown" size="4" pos="26" value="ac106965"/>
    <field name="" show="Destination GeoIP: Unknown" size="4" pos="30" value="0f92c143"/>
  </proto>
  <proto name="tcp" showname="Transmission Control Protocol, Src Port: 56548 (56548), Dst Port: 6633 (6633), Seq: 17, Ack: 25, Len: 32" size="32" pos="34">
    <field name="tcp.srcport" showname="Source port: 56548 (56548)" size="2" pos="34" show="56548" value="dce4"/>
    <field name="tcp.dstport" showname="Destination port: 6633 (6633)" size="2" pos="36" show="6633" value="19e9"/>
    <field name="tcp.port" showname="Source or Destination Port: 56548" hide="yes" size="2" pos="34" show="56548" value="dce4"/>
    <field name="tcp.port" showname="Source or Destination Port: 6633" hide="yes" size="2" pos="36" show="6633" value="19e9"/>
    <field name="tcp.stream" showname="Stream index: 0" size="0" pos="34" show="0"/>
    <field name="tcp.len" showname="TCP Segment Len: 32" hide="yes" size="1" pos="46" show="32" value="80"/>
    <field name="tcp.seq" showname="Sequence number: 17    (relative sequence number)" size="4" pos="38" show="17" value="2b879f3f"/>
    <field name="tcp.nxtseq" showname="Next sequence number: 49    (relative sequence number)" size="0" pos="34" show="49"/>
    <field name="tcp.ack" showname="Acknowledgment number: 25    (relative ack number)" size="4" pos="42" show="25" value="9d90e2ea"/>
    <field name="tcp.hdr_len" showname="Header length: 32 bytes" size="1" pos="46" show="32" value="80"/>
    <field name="tcp.flags" showname="Flags: 0x018 (PSH, ACK)" size="2" pos="46" show="0x0018" value="18" unmaskedvalue="8018">
      <field name="tcp.flags.res" showname="000. .... .... = Reserved: Not set" size="1" pos="46" show="0" value="0" unmaskedvalue="80"/>
      <field name="tcp.flags.ns" showname="...0 .... .... = Nonce: Not set" size="1" pos="46" show="0" value="0" unmaskedvalue="80"/>
      <field name="tcp.flags.cwr" showname=".... 0... .... = Congestion Window Reduced (CWR): Not set" size="1" pos="47" show="0" value="0" unmaskedvalue="18"/>
      <field name="tcp.flags.ecn" showname=".... .0.. .... = ECN-Echo: Not set" size="1" pos="47" show="0" value="0" unmaskedvalue="18"/>
      <field name="tcp.flags.urg" showname=".... ..0. .... = Urgent: Not set" size="1" pos="47" show="0" value="0" unmaskedvalue="18"/>
      <field name="tcp.flags.ack" showname=".... ...1 .... = Acknowledgment: Set" size="1" pos="47" show="1" value="1" unmaskedvalue="18"/>
      <field name="tcp.flags.push" showname=".... .... 1... = Push: Set" size="1" pos="47" show="1" value="1" unmaskedvalue="18"/>
      <field name="tcp.flags.reset" showname=".... .... .0.. = Reset: Not set" size="1" pos="47" show="0" value="0" unmaskedvalue="18"/>
      <field name="tcp.flags.syn" showname=".... .... ..0. = Syn: Not set" size="1" pos="47" show="0" value="0" unmaskedvalue="18"/>
      <field name="tcp.flags.fin" showname=".... .... ...0 = Fin: Not set" size="1" pos="47" show="0" value="0" unmaskedvalue="18"/>
    </field>
    <field name="tcp.window_size_value" showname="Window size value: 33292" size="2" pos="48" show="33292" value="820c"/>
    <field name="tcp.window_size" showname="Calculated window size: 66584" size="2" pos="48" show="66584" value="820c"/>
    <field name="tcp.window_size_scalefactor" showname="Window size scaling factor: 2" size="2" pos="48" show="2" value="820c"/>
    <field name="tcp.checksum" showname="Checksum: 0xba1e [validation disabled]" size="2" pos="50" show="0xba1e" value="ba1e">
      <field name="tcp.checksum_good" showname="Good Checksum: False" size="2" pos="50" show="0" value="ba1e"/>
      <field name="tcp.checksum_bad" showname="Bad Checksum: False" size="2" pos="50" show="0" value="ba1e"/>
    </field>
    <field name="tcp.options" showname="Options: (12 bytes), No-Operation (NOP), No-Operation (NOP), Timestamps" size="12" pos="54" show="01:01:08:0a:4d:18:36:32:00:03:04:1a" value="0101080a4d1836320003041a">
      <field name="" show="No-Operation (NOP)" size="1" pos="54" value="01">
        <field name="ip.opt.type" showname="Type: 1" size="1" pos="54" show="1" value="01">
          <field name="ip.opt.type.copy" showname="0... .... = Copy on fragmentation: No" size="1" pos="54" show="0" value="0" unmaskedvalue="01"/>
          <field name="ip.opt.type.class" showname=".00. .... = Class: Control (0)" size="1" pos="54" show="0" value="0" unmaskedvalue="01"/>
          <field name="ip.opt.type.number" showname="...0 0001 = Number: No-Operation (NOP) (1)" size="1" pos="54" show="1" value="1" unmaskedvalue="01"/>
        </field>
      </field>
      <field name="" show="No-Operation (NOP)" size="1" pos="55" value="01">
        <field name="ip.opt.type" showname="Type: 1" size="1" pos="55" show="1" value="01">
          <field name="ip.opt.type.copy" showname="0... .... = Copy on fragmentation: No" size="1" pos="55" show="0" value="0" unmaskedvalue="01"/>
          <field name="ip.opt.type.class" showname=".00. .... = Class: Control (0)" size="1" pos="55" show="0" value="0" unmaskedvalue="01"/>
          <field name="ip.opt.type.number" showname="...0 0001 = Number: No-Operation (NOP) (1)" size="1" pos="55" show="1" value="1" unmaskedvalue="01"/>
        </field>
      </field>
      <field name="" show="Timestamps: TSval 1293432370, TSecr 197658" size="10" pos="56" value="080a4d1836320003041a">
        <field name="tcp.option_kind" showname="Kind: Timestamp (8)" size="1" pos="56" show="8" value="08"/>
        <field name="tcp.option_len" showname="Length: 10" size="1" pos="57" show="10" value="0a"/>
        <field name="tcp.options.timestamp.tsval" showname="Timestamp value: 1293432370" size="4" pos="58" show="1293432370" value="4d183632"/>
        <field name="tcp.options.timestamp.tsecr" showname="Timestamp echo reply: 197658" size="4" pos="62" show="197658" value="0003041a"/>
      </field>
    </field>
    <field name="tcp.analysis" showname="SEQ/ACK analysis" size="0" pos="34" show="" value="">
      <field name="tcp.analysis.bytes_in_flight" showname="Bytes in flight: 32" size="0" pos="34" show="32"/>
    </field>
  </proto>
  <proto name="fake-field-wrapper">
    <field name="data" value="040600200000042e00080021f71a870000000000030000000000010f00000000">
      <field name="data.data" showname="Data: 040600200000042e00080021f71a87000000000003000000..." size="32" pos="66" show="04:06:00:20:00:00:04:2e:00:08:00:21:f7:1a:87:00:00:00:00:00:03:00:00:00:00:00:01:0f:00:00:00:00" value="040600200000042e00080021f71a870000000000030000000000010f00000000"/>
      <field name="data.len" showname="Length: 32" size="0" pos="66" show="32"/>
  </field>
</proto>
</packet>

<packet>
  <proto name="geninfo" pos="0" showname="General information" size="82">
    <field name="num" pos="0" show="11" showname="Number" value="b" size="82"/>
    <field name="len" pos="0" show="82" showname="Frame Length" value="52" size="82"/>
    <field name="caplen" pos="0" show="82" showname="Captured Length" value="52" size="82"/>
    <field name="timestamp" pos="0" show="Feb  4, 2012 21:50:25.329817000 Pacific Standard Time" showname="Captured Time" value="1328421025.329817000" size="82"/>
  </proto>
  <proto name="frame" showname="Frame 11: 82 bytes on wire (656 bits), 82 bytes captured (656 bits)" size="82" pos="0">
    <field name="frame.encap_type" showname="Encapsulation type: Ethernet (1)" size="0" pos="0" show="1"/>
    <field name="frame.time" showname="Arrival Time: Feb  4, 2012 21:50:25.329817000 Pacific Standard Time" size="0" pos="0" show="Feb  4, 2012 21:50:25.329817000"/>
    <field name="frame.offset_shift" showname="Time shift for this packet: 0.000000000 seconds" size="0" pos="0" show="0.000000000"/>
    <field name="frame.time_epoch" showname="Epoch Time: 1328421025.329817000 seconds" size="0" pos="0" show="1328421025.329817000"/>
    <field name="frame.time_delta" showname="Time delta from previous captured frame: 0.001536000 seconds" size="0" pos="0" show="0.001536000"/>
    <field name="frame.time_delta_displayed" showname="Time delta from previous displayed frame: 0.001536000 seconds" size="0" pos="0" show="0.001536000"/>
    <field name="frame.time_relative" showname="Time since reference or first frame: 1.017234000 seconds" size="0" pos="0" show="1.017234000"/>
    <field name="frame.number" showname="Frame Number: 11" size="0" pos="0" show="11"/>
    <field name="frame.len" showname="Frame Length: 82 bytes (656 bits)" size="0" pos="0" show="82"/>
    <field name="frame.cap_len" showname="Capture Length: 82 bytes (656 bits)" size="0" pos="0" show="82"/>
    <field name="frame.marked" showname="Frame is marked: False" size="0" pos="0" show="0"/>
    <field name="frame.ignored" showname="Frame is ignored: False" size="0" pos="0" show="0"/>
    <field name="frame.protocols" showname="Protocols in frame: eth:ip:tcp:data" size="0" pos="0" show="eth:ip:tcp:data"/>
    <field name="frame.coloring_rule.name" showname="Coloring Rule Name: TCP" size="0" pos="0" show="TCP"/>
    <field name="frame.coloring_rule.string" showname="Coloring Rule String: tcp" size="0" pos="0" show="tcp"/>
  </proto>
  <proto name="eth" showname="Ethernet II, Src: Vmware_d3:f3:c8 (00:0c:29:d3:f3:c8), Dst: HpnSuppl_f3:48:00 (00:21:f7:f3:48:00)" size="14" pos="0">
    <field name="eth.dst" showname="Destination: HpnSuppl_f3:48:00 (00:21:f7:f3:48:00)" size="6" pos="0" show="00:21:f7:f3:48:00" value="0021f7f34800">
      <field name="eth.addr" showname="Address: HpnSuppl_f3:48:00 (00:21:f7:f3:48:00)" size="6" pos="0" show="00:21:f7:f3:48:00" value="0021f7f34800"/>
      <field name="eth.lg" showname=".... ..0. .... .... .... .... = LG bit: Globally unique address (factory default)" size="3" pos="0" show="0" value="0" unmaskedvalue="0021f7"/>
      <field name="eth.ig" showname=".... ...0 .... .... .... .... = IG bit: Individual address (unicast)" size="3" pos="0" show="0" value="0" unmaskedvalue="0021f7"/>
    </field>
    <field name="eth.src" showname="Source: Vmware_d3:f3:c8 (00:0c:29:d3:f3:c8)" size="6" pos="6" show="00:0c:29:d3:f3:c8" value="000c29d3f3c8">
      <field name="eth.addr" showname="Address: Vmware_d3:f3:c8 (00:0c:29:d3:f3:c8)" size="6" pos="6" show="00:0c:29:d3:f3:c8" value="000c29d3f3c8"/>
      <field name="eth.lg" showname=".... ..0. .... .... .... .... = LG bit: Globally unique address (factory default)" size="3" pos="6" show="0" value="0" unmaskedvalue="000c29"/>
      <field name="eth.ig" showname=".... ...0 .... .... .... .... = IG bit: Individual address (unicast)" size="3" pos="6" show="0" value="0" unmaskedvalue="000c29"/>
    </field>
    <field name="eth.type" showname="Type: IP (0x0800)" size="2" pos="12" show="0x0800" value="0800"/>
  </proto>
  <proto name="ip" showname="Internet Protocol Version 4, Src: 15.146.193.67 (15.146.193.67), Dst: 172.16.105.101 (172.16.105.101)" size="20" pos="14">
    <field name="ip.version" showname="Version: 4" size="1" pos="14" show="4" value="45"/>
    <field name="ip.hdr_len" showname="Header length: 20 bytes" size="1" pos="14" show="20" value="45"/>
    <field name="ip.dsfield" showname="Differentiated Services Field: 0x00 (DSCP 0x00: Default; ECN: 0x00: Not-ECT (Not ECN-Capable Transport))" size="1" pos="15" show="0" value="00">
      <field name="ip.dsfield.dscp" showname="0000 00.. = Differentiated Services Codepoint: Default (0x00)" size="1" pos="15" show="0x00" value="0" unmaskedvalue="00"/>
      <field name="ip.dsfield.ecn" showname=".... ..00 = Explicit Congestion Notification: Not-ECT (Not ECN-Capable Transport) (0x00)" size="1" pos="15" show="0x00" value="0" unmaskedvalue="00"/>
    </field>
    <field name="ip.len" showname="Total Length: 68" size="2" pos="16" show="68" value="0044"/>
    <field name="ip.id" showname="Identification: 0xe13b (57659)" size="2" pos="18" show="0xe13b" value="e13b"/>
    <field name="ip.flags" showname="Flags: 0x02 (Don&apos;t Fragment)" size="1" pos="20" show="0x02" value="40">
      <field name="ip.flags.rb" showname="0... .... = Reserved bit: Not set" size="1" pos="20" show="0" value="40"/>
      <field name="ip.flags.df" showname=".1.. .... = Don&apos;t fragment: Set" size="1" pos="20" show="1" value="40"/>
      <field name="ip.flags.mf" showname="..0. .... = More fragments: Not set" size="1" pos="20" show="0" value="40"/>
    </field>
    <field name="ip.frag_offset" showname="Fragment offset: 0" size="2" pos="20" show="0" value="4000"/>
    <field name="ip.ttl" showname="Time to live: 64" size="1" pos="22" show="64" value="40"/>
    <field name="ip.proto" showname="Protocol: TCP (6)" size="1" pos="23" show="6" value="06"/>
    <field name="ip.checksum" showname="Header checksum: 0x732d [correct]" size="2" pos="24" show="0x732d" value="732d">
      <field name="ip.checksum_good" showname="Good: True" size="2" pos="24" show="1" value="732d"/>
      <field name="ip.checksum_bad" showname="Bad: False" size="2" pos="24" show="0" value="732d"/>
    </field>
    <field name="ip.src" showname="Source: 15.146.193.67 (15.146.193.67)" size="4" pos="26" show="15.146.193.67" value="0f92c143"/>
    <field name="ip.addr" showname="Source or Destination Address: 15.146.193.67 (15.146.193.67)" hide="yes" size="4" pos="26" show="15.146.193.67" value="0f92c143"/>
    <field name="ip.src_host" showname="Source Host: 15.146.193.67" hide="yes" size="4" pos="26" show="15.146.193.67" value="0f92c143"/>
    <field name="ip.host" showname="Source or Destination Host: 15.146.193.67" hide="yes" size="4" pos="26" show="15.146.193.67" value="0f92c143"/>
    <field name="ip.dst" showname="Destination: 172.16.105.101 (172.16.105.101)" size="4" pos="30" show="172.16.105.101" value="ac106965"/>
    <field name="ip.addr" showname="Source or Destination Address: 172.16.105.101 (172.16.105.101)" hide="yes" size="4" pos="30" show="172.16.105.101" value="ac106965"/>
    <field name="ip.dst_host" showname="Destination Host: 172.16.105.101" hide="yes" size="4" pos="30" show="172.16.105.101" value="ac106965"/>
    <field name="ip.host" showname="Source or Destination Host: 172.16.105.101" hide="yes" size="4" pos="30" show="172.16.105.101" value="ac106965"/>
    <field name="" show="Source GeoIP: Unknown" size="4" pos="26" value="0f92c143"/>
    <field name="" show="Destination GeoIP: Unknown" size="4" pos="30" value="ac106965"/>
  </proto>
  <proto name="tcp" showname="Transmission Control Protocol, Src Port: 6633 (6633), Dst Port: 56548 (56548), Seq: 25, Ack: 49, Len: 16" size="32" pos="34">
    <field name="tcp.srcport" showname="Source port: 6633 (6633)" size="2" pos="34" show="6633" value="19e9"/>
    <field name="tcp.dstport" showname="Destination port: 56548 (56548)" size="2" pos="36" show="56548" value="dce4"/>
    <field name="tcp.port" showname="Source or Destination Port: 6633" hide="yes" size="2" pos="34" show="6633" value="19e9"/>
    <field name="tcp.port" showname="Source or Destination Port: 56548" hide="yes" size="2" pos="36" show="56548" value="dce4"/>
    <field name="tcp.stream" showname="Stream index: 0" size="0" pos="34" show="0"/>
    <field name="tcp.len" showname="TCP Segment Len: 16" hide="yes" size="1" pos="46" show="16" value="80"/>
    <field name="tcp.seq" showname="Sequence number: 25    (relative sequence number)" size="4" pos="38" show="25" value="9d90e2ea"/>
    <field name="tcp.nxtseq" showname="Next sequence number: 41    (relative sequence number)" size="0" pos="34" show="41"/>
    <field name="tcp.ack" showname="Acknowledgment number: 49    (relative ack number)" size="4" pos="42" show="49" value="2b879f5f"/>
    <field name="tcp.hdr_len" showname="Header length: 32 bytes" size="1" pos="46" show="32" value="80"/>
    <field name="tcp.flags" showname="Flags: 0x018 (PSH, ACK)" size="2" pos="46" show="0x0018" value="18" unmaskedvalue="8018">
      <field name="tcp.flags.res" showname="000. .... .... = Reserved: Not set" size="1" pos="46" show="0" value="0" unmaskedvalue="80"/>
      <field name="tcp.flags.ns" showname="...0 .... .... = Nonce: Not set" size="1" pos="46" show="0" value="0" unmaskedvalue="80"/>
      <field name="tcp.flags.cwr" showname=".... 0... .... = Congestion Window Reduced (CWR): Not set" size="1" pos="47" show="0" value="0" unmaskedvalue="18"/>
      <field name="tcp.flags.ecn" showname=".... .0.. .... = ECN-Echo: Not set" size="1" pos="47" show="0" value="0" unmaskedvalue="18"/>
      <field name="tcp.flags.urg" showname=".... ..0. .... = Urgent: Not set" size="1" pos="47" show="0" value="0" unmaskedvalue="18"/>
      <field name="tcp.flags.ack" showname=".... ...1 .... = Acknowledgment: Set" size="1" pos="47" show="1" value="1" unmaskedvalue="18"/>
      <field name="tcp.flags.push" showname=".... .... 1... = Push: Set" size="1" pos="47" show="1" value="1" unmaskedvalue="18"/>
      <field name="tcp.flags.reset" showname=".... .... .0.. = Reset: Not set" size="1" pos="47" show="0" value="0" unmaskedvalue="18"/>
      <field name="tcp.flags.syn" showname=".... .... ..0. = Syn: Not set" size="1" pos="47" show="0" value="0" unmaskedvalue="18"/>
      <field name="tcp.flags.fin" showname=".... .... ...0 = Fin: Not set" size="1" pos="47" show="0" value="0" unmaskedvalue="18"/>
    </field>
    <field name="tcp.window_size_value" showname="Window size value: 227" size="2" pos="48" show="227" value="00e3"/>
    <field name="tcp.window_size" showname="Calculated window size: 14528" size="2" pos="48" show="14528" value="00e3"/>
    <field name="tcp.window_size_scalefactor" showname="Window size scaling factor: 64" size="2" pos="48" show="64" value="00e3"/>
    <field name="tcp.checksum" showname="Checksum: 0xe681 [validation disabled]" size="2" pos="50" show="0xe681" value="e681">
      <field name="tcp.checksum_good" showname="Good Checksum: False" size="2" pos="50" show="0" value="e681"/>
      <field name="tcp.checksum_bad" showname="Bad Checksum: False" size="2" pos="50" show="0" value="e681"/>
    </field>
    <field name="tcp.options" showname="Options: (12 bytes), No-Operation (NOP), No-Operation (NOP), Timestamps" size="12" pos="54" show="01:01:08:0a:00:03:04:e5:4d:18:36:32" value="0101080a000304e54d183632">
      <field name="" show="No-Operation (NOP)" size="1" pos="54" value="01">
        <field name="ip.opt.type" showname="Type: 1" size="1" pos="54" show="1" value="01">
          <field name="ip.opt.type.copy" showname="0... .... = Copy on fragmentation: No" size="1" pos="54" show="0" value="0" unmaskedvalue="01"/>
          <field name="ip.opt.type.class" showname=".00. .... = Class: Control (0)" size="1" pos="54" show="0" value="0" unmaskedvalue="01"/>
          <field name="ip.opt.type.number" showname="...0 0001 = Number: No-Operation (NOP) (1)" size="1" pos="54" show="1" value="1" unmaskedvalue="01"/>
        </field>
      </field>
      <field name="" show="No-Operation (NOP)" size="1" pos="55" value="01">
        <field name="ip.opt.type" showname="Type: 1" size="1" pos="55" show="1" value="01">
          <field name="ip.opt.type.copy" showname="0... .... = Copy on fragmentation: No" size="1" pos="55" show="0" value="0" unmaskedvalue="01"/>
          <field name="ip.opt.type.class" showname=".00. .... = Class: Control (0)" size="1" pos="55" show="0" value="0" unmaskedvalue="01"/>
          <field name="ip.opt.type.number" showname="...0 0001 = Number: No-Operation (NOP) (1)" size="1" pos="55" show="1" value="1" unmaskedvalue="01"/>
        </field>
      </field>
      <field name="" show="Timestamps: TSval 197861, TSecr 1293432370" size="10" pos="56" value="080a000304e54d183632">
        <field name="tcp.option_kind" showname="Kind: Timestamp (8)" size="1" pos="56" show="8" value="08"/>
        <field name="tcp.option_len" showname="Length: 10" size="1" pos="57" show="10" value="0a"/>
        <field name="tcp.options.timestamp.tsval" showname="Timestamp value: 197861" size="4" pos="58" show="197861" value="000304e5"/>
        <field name="tcp.options.timestamp.tsecr" showname="Timestamp echo reply: 1293432370" size="4" pos="62" show="1293432370" value="4d183632"/>
      </field>
    </field>
    <field name="tcp.analysis" showname="SEQ/ACK analysis" size="0" pos="34" show="" value="">
      <field name="tcp.analysis.acks_frame" showname="This is an ACK to the segment in frame: 10" size="0" pos="34" show="10"/>
      <field name="tcp.analysis.ack_rtt" showname="The RTT to ACK the segment was: 0.001536000 seconds" size="0" pos="34" show="0.001536000"/>
      <field name="tcp.analysis.bytes_in_flight" showname="Bytes in flight: 16" size="0" pos="34" show="16"/>
    </field>
  </proto>
  <proto name="fake-field-wrapper">
    <field name="data" value="041200100000042f000d000000000000">
      <field name="data.data" showname="Data: 041200100000042f000d000000000000" size="16" pos="66" show="04:12:00:10:00:00:04:2f:00:0d:00:00:00:00:00:00" value="041200100000042f000d000000000000"/>
      <field name="data.len" showname="Length: 16" size="0" pos="66" show="16"/>
  </field>
</proto>
</packet>

<packet>
  <proto name="geninfo" pos="0" showname="General information" size="94">
    <field name="num" pos="0" show="13" showname="Number" value="d" size="94"/>
    <field name="len" pos="0" show="94" showname="Frame Length" value="5e" size="94"/>
    <field name="caplen" pos="0" show="94" showname="Captured Length" value="5e" size="94"/>
    <field name="timestamp" pos="0" show="Feb  4, 2012 21:50:25.528512000 Pacific Standard Time" showname="Captured Time" value="1328421025.528512000" size="94"/>
  </proto>
  <proto name="frame" showname="Frame 13: 94 bytes on wire (752 bits), 94 bytes captured (752 bits)" size="94" pos="0">
    <field name="frame.encap_type" showname="Encapsulation type: Ethernet (1)" size="0" pos="0" show="1"/>
    <field name="frame.time" showname="Arrival Time: Feb  4, 2012 21:50:25.528512000 Pacific Standard Time" size="0" pos="0" show="Feb  4, 2012 21:50:25.528512000"/>
    <field name="frame.offset_shift" showname="Time shift for this packet: 0.000000000 seconds" size="0" pos="0" show="0.000000000"/>
    <field name="frame.time_epoch" showname="Epoch Time: 1328421025.528512000 seconds" size="0" pos="0" show="1328421025.528512000"/>
    <field name="frame.time_delta" showname="Time delta from previous captured frame: 0.000040000 seconds" size="0" pos="0" show="0.000040000"/>
    <field name="frame.time_delta_displayed" showname="Time delta from previous displayed frame: 0.198695000 seconds" size="0" pos="0" show="0.198695000"/>
    <field name="frame.time_relative" showname="Time since reference or first frame: 1.215929000 seconds" size="0" pos="0" show="1.215929000"/>
    <field name="frame.number" showname="Frame Number: 13" size="0" pos="0" show="13"/>
    <field name="frame.len" showname="Frame Length: 94 bytes (752 bits)" size="0" pos="0" show="94"/>
    <field name="frame.cap_len" showname="Capture Length: 94 bytes (752 bits)" size="0" pos="0" show="94"/>
    <field name="frame.marked" showname="Frame is marked: False" size="0" pos="0" show="0"/>
    <field name="frame.ignored" showname="Frame is ignored: False" size="0" pos="0" show="0"/>
    <field name="frame.protocols" showname="Protocols in frame: eth:ip:tcp:data" size="0" pos="0" show="eth:ip:tcp:data"/>
    <field name="frame.coloring_rule.name" showname="Coloring Rule Name: TCP" size="0" pos="0" show="TCP"/>
    <field name="frame.coloring_rule.string" showname="Coloring Rule String: tcp" size="0" pos="0" show="tcp"/>
  </proto>
  <proto name="eth" showname="Ethernet II, Src: Vmware_d3:f3:c8 (00:0c:29:d3:f3:c8), Dst: HpnSuppl_f3:48:00 (00:21:f7:f3:48:00)" size="14" pos="0">
    <field name="eth.dst" showname="Destination: HpnSuppl_f3:48:00 (00:21:f7:f3:48:00)" size="6" pos="0" show="00:21:f7:f3:48:00" value="0021f7f34800">
      <field name="eth.addr" showname="Address: HpnSuppl_f3:48:00 (00:21:f7:f3:48:00)" size="6" pos="0" show="00:21:f7:f3:48:00" value="0021f7f34800"/>
      <field name="eth.lg" showname=".... ..0. .... .... .... .... = LG bit: Globally unique address (factory default)" size="3" pos="0" show="0" value="0" unmaskedvalue="0021f7"/>
      <field name="eth.ig" showname=".... ...0 .... .... .... .... = IG bit: Individual address (unicast)" size="3" pos="0" show="0" value="0" unmaskedvalue="0021f7"/>
    </field>
    <field name="eth.src" showname="Source: Vmware_d3:f3:c8 (00:0c:29:d3:f3:c8)" size="6" pos="6" show="00:0c:29:d3:f3:c8" value="000c29d3f3c8">
      <field name="eth.addr" showname="Address: Vmware_d3:f3:c8 (00:0c:29:d3:f3:c8)" size="6" pos="6" show="00:0c:29:d3:f3:c8" value="000c29d3f3c8"/>
      <field name="eth.lg" showname=".... ..0. .... .... .... .... = LG bit: Globally unique address (factory default)" size="3" pos="6" show="0" value="0" unmaskedvalue="000c29"/>
      <field name="eth.ig" showname=".... ...0 .... .... .... .... = IG bit: Individual address (unicast)" size="3" pos="6" show="0" value="0" unmaskedvalue="000c29"/>
    </field>
    <field name="eth.type" showname="Type: IP (0x0800)" size="2" pos="12" show="0x0800" value="0800"/>
  </proto>
  <proto name="ip" showname="Internet Protocol Version 4, Src: 15.146.193.67 (15.146.193.67), Dst: 172.16.105.101 (172.16.105.101)" size="20" pos="14">
    <field name="ip.version" showname="Version: 4" size="1" pos="14" show="4" value="45"/>
    <field name="ip.hdr_len" showname="Header length: 20 bytes" size="1" pos="14" show="20" value="45"/>
    <field name="ip.dsfield" showname="Differentiated Services Field: 0x00 (DSCP 0x00: Default; ECN: 0x00: Not-ECT (Not ECN-Capable Transport))" size="1" pos="15" show="0" value="00">
      <field name="ip.dsfield.dscp" showname="0000 00.. = Differentiated Services Codepoint: Default (0x00)" size="1" pos="15" show="0x00" value="0" unmaskedvalue="00"/>
      <field name="ip.dsfield.ecn" showname=".... ..00 = Explicit Congestion Notification: Not-ECT (Not ECN-Capable Transport) (0x00)" size="1" pos="15" show="0x00" value="0" unmaskedvalue="00"/>
    </field>
    <field name="ip.len" showname="Total Length: 80" size="2" pos="16" show="80" value="0050"/>
    <field name="ip.id" showname="Identification: 0xe13c (57660)" size="2" pos="18" show="0xe13c" value="e13c"/>
    <field name="ip.flags" showname="Flags: 0x02 (Don&apos;t Fragment)" size="1" pos="20" show="0x02" value="40">
      <field name="ip.flags.rb" showname="0... .... = Reserved bit: Not set" size="1" pos="20" show="0" value="40"/>
      <field name="ip.flags.df" showname=".1.. .... = Don&apos;t fragment: Set" size="1" pos="20" show="1" value="40"/>
      <field name="ip.flags.mf" showname="..0. .... = More fragments: Not set" size="1" pos="20" show="0" value="40"/>
    </field>
    <field name="ip.frag_offset" showname="Fragment offset: 0" size="2" pos="20" show="0" value="4000"/>
    <field name="ip.ttl" showname="Time to live: 64" size="1" pos="22" show="64" value="40"/>
    <field name="ip.proto" showname="Protocol: TCP (6)" size="1" pos="23" show="6" value="06"/>
    <field name="ip.checksum" showname="Header checksum: 0x7320 [correct]" size="2" pos="24" show="0x7320" value="7320">
      <field name="ip.checksum_good" showname="Good: True" size="2" pos="24" show="1" value="7320"/>
      <field name="ip.checksum_bad" showname="Bad: False" size="2" pos="24" show="0" value="7320"/>
    </field>
    <field name="ip.src" showname="Source: 15.146.193.67 (15.146.193.67)" size="4" pos="26" show="15.146.193.67" value="0f92c143"/>
    <field name="ip.addr" showname="Source or Destination Address: 15.146.193.67 (15.146.193.67)" hide="yes" size="4" pos="26" show="15.146.193.67" value="0f92c143"/>
    <field name="ip.src_host" showname="Source Host: 15.146.193.67" hide="yes" size="4" pos="26" show="15.146.193.67" value="0f92c143"/>
    <field name="ip.host" showname="Source or Destination Host: 15.146.193.67" hide="yes" size="4" pos="26" show="15.146.193.67" value="0f92c143"/>
    <field name="ip.dst" showname="Destination: 172.16.105.101 (172.16.105.101)" size="4" pos="30" show="172.16.105.101" value="ac106965"/>
    <field name="ip.addr" showname="Source or Destination Address: 172.16.105.101 (172.16.105.101)" hide="yes" size="4" pos="30" show="172.16.105.101" value="ac106965"/>
    <field name="ip.dst_host" showname="Destination Host: 172.16.105.101" hide="yes" size="4" pos="30" show="172.16.105.101" value="ac106965"/>
    <field name="ip.host" showname="Source or Destination Host: 172.16.105.101" hide="yes" size="4" pos="30" show="172.16.105.101" value="ac106965"/>
    <field name="" show="Source GeoIP: Unknown" size="4" pos="26" value="0f92c143"/>
    <field name="" show="Destination GeoIP: Unknown" size="4" pos="30" value="ac106965"/>
  </proto>
  <proto name="tcp" showname="Transmission Control Protocol, Src Port: 6633 (6633), Dst Port: 56548 (56548), Seq: 41, Ack: 49, Len: 28" size="32" pos="34">
    <field name="tcp.srcport" showname="Source port: 6633 (6633)" size="2" pos="34" show="6633" value="19e9"/>
    <field name="tcp.dstport" showname="Destination port: 56548 (56548)" size="2" pos="36" show="56548" value="dce4"/>
    <field name="tcp.port" showname="Source or Destination Port: 6633" hide="yes" size="2" pos="34" show="6633" value="19e9"/>
    <field name="tcp.port" showname="Source or Destination Port: 56548" hide="yes" size="2" pos="36" show="56548" value="dce4"/>
    <field name="tcp.stream" showname="Stream index: 0" size="0" pos="34" show="0"/>
    <field name="tcp.len" showname="TCP Segment Len: 28" hide="yes" size="1" pos="46" show="28" value="80"/>
    <field name="tcp.seq" showname="Sequence number: 41    (relative sequence number)" size="4" pos="38" show="41" value="9d90e2fa"/>
    <field name="tcp.nxtseq" showname="Next sequence number: 69    (relative sequence number)" size="0" pos="34" show="69"/>
    <field name="tcp.ack" showname="Acknowledgment number: 49    (relative ack number)" size="4" pos="42" show="49" value="2b879f5f"/>
    <field name="tcp.hdr_len" showname="Header length: 32 bytes" size="1" pos="46" show="32" value="80"/>
    <field name="tcp.flags" showname="Flags: 0x018 (PSH, ACK)" size="2" pos="46" show="0x0018" value="18" unmaskedvalue="8018">
      <field name="tcp.flags.res" showname="000. .... .... = Reserved: Not set" size="1" pos="46" show="0" value="0" unmaskedvalue="80"/>
      <field name="tcp.flags.ns" showname="...0 .... .... = Nonce: Not set" size="1" pos="46" show="0" value="0" unmaskedvalue="80"/>
      <field name="tcp.flags.cwr" showname=".... 0... .... = Congestion Window Reduced (CWR): Not set" size="1" pos="47" show="0" value="0" unmaskedvalue="18"/>
      <field name="tcp.flags.ecn" showname=".... .0.. .... = ECN-Echo: Not set" size="1" pos="47" show="0" value="0" unmaskedvalue="18"/>
      <field name="tcp.flags.urg" showname=".... ..0. .... = Urgent: Not set" size="1" pos="47" show="0" value="0" unmaskedvalue="18"/>
      <field name="tcp.flags.ack" showname=".... ...1 .... = Acknowledgment: Set" size="1" pos="47" show="1" value="1" unmaskedvalue="18"/>
      <field name="tcp.flags.push" showname=".... .... 1... = Push: Set" size="1" pos="47" show="1" value="1" unmaskedvalue="18"/>
      <field name="tcp.flags.reset" showname=".... .... .0.. = Reset: Not set" size="1" pos="47" show="0" value="0" unmaskedvalue="18"/>
      <field name="tcp.flags.syn" showname=".... .... ..0. = Syn: Not set" size="1" pos="47" show="0" value="0" unmaskedvalue="18"/>
      <field name="tcp.flags.fin" showname=".... .... ...0 = Fin: Not set" size="1" pos="47" show="0" value="0" unmaskedvalue="18"/>
    </field>
    <field name="tcp.window_size_value" showname="Window size value: 227" size="2" pos="48" show="227" value="00e3"/>
    <field name="tcp.window_size" showname="Calculated window size: 14528" size="2" pos="48" show="14528" value="00e3"/>
    <field name="tcp.window_size_scalefactor" showname="Window size scaling factor: 64" size="2" pos="48" show="64" value="00e3"/>
    <field name="tcp.checksum" showname="Checksum: 0xe68d [validation disabled]" size="2" pos="50" show="0xe68d" value="e68d">
      <field name="tcp.checksum_good" showname="Good Checksum: False" size="2" pos="50" show="0" value="e68d"/>
      <field name="tcp.checksum_bad" showname="Bad Checksum: False" size="2" pos="50" show="0" value="e68d"/>
    </field>
    <field name="tcp.options" showname="Options: (12 bytes), No-Operation (NOP), No-Operation (NOP), Timestamps" size="12" pos="54" show="01:01:08:0a:00:03:05:17:4d:18:37:04" value="0101080a000305174d183704">
      <field name="" show="No-Operation (NOP)" size="1" pos="54" value="01">
        <field name="ip.opt.type" showname="Type: 1" size="1" pos="54" show="1" value="01">
          <field name="ip.opt.type.copy" showname="0... .... = Copy on fragmentation: No" size="1" pos="54" show="0" value="0" unmaskedvalue="01"/>
          <field name="ip.opt.type.class" showname=".00. .... = Class: Control (0)" size="1" pos="54" show="0" value="0" unmaskedvalue="01"/>
          <field name="ip.opt.type.number" showname="...0 0001 = Number: No-Operation (NOP) (1)" size="1" pos="54" show="1" value="1" unmaskedvalue="01"/>
        </field>
      </field>
      <field name="" show="No-Operation (NOP)" size="1" pos="55" value="01">
        <field name="ip.opt.type" showname="Type: 1" size="1" pos="55" show="1" value="01">
          <field name="ip.opt.type.copy" showname="0... .... = Copy on fragmentation: No" size="1" pos="55" show="0" value="0" unmaskedvalue="01"/>
          <field name="ip.opt.type.class" showname=".00. .... = Class: Control (0)" size="1" pos="55" show="0" value="0" unmaskedvalue="01"/>
          <field name="ip.opt.type.number" showname="...0 0001 = Number: No-Operation (NOP) (1)" size="1" pos="55" show="1" value="1" unmaskedvalue="01"/>
        </field>
      </field>
      <field name="" show="Timestamps: TSval 197911, TSecr 1293432580" size="10" pos="56" value="080a000305174d183704">
        <field name="tcp.option_kind" showname="Kind: Timestamp (8)" size="1" pos="56" show="8" value="08"/>
        <field name="tcp.option_len" showname="Length: 10" size="1" pos="57" show="10" value="0a"/>
        <field name="tcp.options.timestamp.tsval" showname="Timestamp value: 197911" size="4" pos="58" show="197911" value="00030517"/>
        <field name="tcp.options.timestamp.tsecr" showname="Timestamp echo reply: 1293432580" size="4" pos="62" show="1293432580" value="4d183704"/>
      </field>
    </field>
    <field name="tcp.analysis" showname="SEQ/ACK analysis" size="0" pos="34" show="" value="">
      <field name="tcp.analysis.bytes_in_flight" showname="Bytes in flight: 28" size="0" pos="34" show="28"/>
    </field>
  </proto>
  <proto name="fake-field-wrapper">
    <field name="data" value="0409000c000004310002ffff0412001000000430000c000000000000">
      <field name="data.data" showname="Data: 0409000c000004310002ffff0412001000000430000c0000..." size="28" pos="66" show="04:09:00:0c:00:00:04:31:00:02:ff:ff:04:12:00:10:00:00:04:30:00:0c:00:00:00:00:00:00" value="0409000c000004310002ffff0412001000000430000c000000000000"/>
      <field name="data.len" showname="Length: 28" size="0" pos="66" show="28"/>
  </field>
</proto>
</packet>

<packet>
  <proto name="geninfo" pos="0" showname="General information" size="402">
    <field name="num" pos="0" show="15" showname="Number" value="f" size="402"/>
    <field name="len" pos="0" show="402" showname="Frame Length" value="192" size="402"/>
    <field name="caplen" pos="0" show="402" showname="Captured Length" value="192" size="402"/>
    <field name="timestamp" pos="0" show="Feb  4, 2012 21:50:26.329405000 Pacific Standard Time" showname="Captured Time" value="1328421026.329405000" size="402"/>
  </proto>
  <proto name="frame" showname="Frame 15: 402 bytes on wire (3216 bits), 402 bytes captured (3216 bits)" size="402" pos="0">
    <field name="frame.encap_type" showname="Encapsulation type: Ethernet (1)" size="0" pos="0" show="1"/>
    <field name="frame.time" showname="Arrival Time: Feb  4, 2012 21:50:26.329405000 Pacific Standard Time" size="0" pos="0" show="Feb  4, 2012 21:50:26.329405000"/>
    <field name="frame.offset_shift" showname="Time shift for this packet: 0.000000000 seconds" size="0" pos="0" show="0.000000000"/>
    <field name="frame.time_epoch" showname="Epoch Time: 1328421026.329405000 seconds" size="0" pos="0" show="1328421026.329405000"/>
    <field name="frame.time_delta" showname="Time delta from previous captured frame: 0.600974000 seconds" size="0" pos="0" show="0.600974000"/>
    <field name="frame.time_delta_displayed" showname="Time delta from previous displayed frame: 0.800893000 seconds" size="0" pos="0" show="0.800893000"/>
    <field name="frame.time_relative" showname="Time since reference or first frame: 2.016822000 seconds" size="0" pos="0" show="2.016822000"/>
    <field name="frame.number" showname="Frame Number: 15" size="0" pos="0" show="15"/>
    <field name="frame.len" showname="Frame Length: 402 bytes (3216 bits)" size="0" pos="0" show="402"/>
    <field name="frame.cap_len" showname="Capture Length: 402 bytes (3216 bits)" size="0" pos="0" show="402"/>
    <field name="frame.marked" showname="Frame is marked: False" size="0" pos="0" show="0"/>
    <field name="frame.ignored" showname="Frame is ignored: False" size="0" pos="0" show="0"/>
    <field name="frame.protocols" showname="Protocols in frame: eth:ip:tcp:data" size="0" pos="0" show="eth:ip:tcp:data"/>
    <field name="frame.coloring_rule.name" showname="Coloring Rule Name: TCP" size="0" pos="0" show="TCP"/>
    <field name="frame.coloring_rule.string" showname="Coloring Rule String: tcp" size="0" pos="0" show="tcp"/>
  </proto>
  <proto name="eth" showname="Ethernet II, Src: HpnSuppl_f3:48:00 (00:21:f7:f3:48:00), Dst: Vmware_d3:f3:c8 (00:0c:29:d3:f3:c8)" size="14" pos="0">
    <field name="eth.dst" showname="Destination: Vmware_d3:f3:c8 (00:0c:29:d3:f3:c8)" size="6" pos="0" show="00:0c:29:d3:f3:c8" value="000c29d3f3c8">
      <field name="eth.addr" showname="Address: Vmware_d3:f3:c8 (00:0c:29:d3:f3:c8)" size="6" pos="0" show="00:0c:29:d3:f3:c8" value="000c29d3f3c8"/>
      <field name="eth.lg" showname=".... ..0. .... .... .... .... = LG bit: Globally unique address (factory default)" size="3" pos="0" show="0" value="0" unmaskedvalue="000c29"/>
      <field name="eth.ig" showname=".... ...0 .... .... .... .... = IG bit: Individual address (unicast)" size="3" pos="0" show="0" value="0" unmaskedvalue="000c29"/>
    </field>
    <field name="eth.src" showname="Source: HpnSuppl_f3:48:00 (00:21:f7:f3:48:00)" size="6" pos="6" show="00:21:f7:f3:48:00" value="0021f7f34800">
      <field name="eth.addr" showname="Address: HpnSuppl_f3:48:00 (00:21:f7:f3:48:00)" size="6" pos="6" show="00:21:f7:f3:48:00" value="0021f7f34800"/>
      <field name="eth.lg" showname=".... ..0. .... .... .... .... = LG bit: Globally unique address (factory default)" size="3" pos="6" show="0" value="0" unmaskedvalue="0021f7"/>
      <field name="eth.ig" showname=".... ...0 .... .... .... .... = IG bit: Individual address (unicast)" size="3" pos="6" show="0" value="0" unmaskedvalue="0021f7"/>
    </field>
    <field name="eth.type" showname="Type: IP (0x0800)" size="2" pos="12" show="0x0800" value="0800"/>
  </proto>
  <proto name="ip" showname="Internet Protocol Version 4, Src: 172.16.105.101 (172.16.105.101), Dst: 15.146.193.67 (15.146.193.67)" size="20" pos="14">
    <field name="ip.version" showname="Version: 4" size="1" pos="14" show="4" value="45"/>
    <field name="ip.hdr_len" showname="Header length: 20 bytes" size="1" pos="14" show="20" value="45"/>
    <field name="ip.dsfield" showname="Differentiated Services Field: 0x00 (DSCP 0x00: Default; ECN: 0x00: Not-ECT (Not ECN-Capable Transport))" size="1" pos="15" show="0" value="00">
      <field name="ip.dsfield.dscp" showname="0000 00.. = Differentiated Services Codepoint: Default (0x00)" size="1" pos="15" show="0x00" value="0" unmaskedvalue="00"/>
      <field name="ip.dsfield.ecn" showname=".... ..00 = Explicit Congestion Notification: Not-ECT (Not ECN-Capable Transport) (0x00)" size="1" pos="15" show="0x00" value="0" unmaskedvalue="00"/>
    </field>
    <field name="ip.len" showname="Total Length: 388" size="2" pos="16" show="388" value="0184"/>
    <field name="ip.id" showname="Identification: 0x7a74 (31348)" size="2" pos="18" show="0x7a74" value="7a74"/>
    <field name="ip.flags" showname="Flags: 0x02 (Don&apos;t Fragment)" size="1" pos="20" show="0x02" value="40">
      <field name="ip.flags.rb" showname="0... .... = Reserved bit: Not set" size="1" pos="20" show="0" value="40"/>
      <field name="ip.flags.df" showname=".1.. .... = Don&apos;t fragment: Set" size="1" pos="20" show="1" value="40"/>
      <field name="ip.flags.mf" showname="..0. .... = More fragments: Not set" size="1" pos="20" show="0" value="40"/>
    </field>
    <field name="ip.frag_offset" showname="Fragment offset: 0" size="2" pos="20" show="0" value="4000"/>
    <field name="ip.ttl" showname="Time to live: 61" size="1" pos="22" show="61" value="3d"/>
    <field name="ip.proto" showname="Protocol: TCP (6)" size="1" pos="23" show="6" value="06"/>
    <field name="ip.checksum" showname="Header checksum: 0xdbb4 [correct]" size="2" pos="24" show="0xdbb4" value="dbb4">
      <field name="ip.checksum_good" showname="Good: True" size="2" pos="24" show="1" value="dbb4"/>
      <field name="ip.checksum_bad" showname="Bad: False" size="2" pos="24" show="0" value="dbb4"/>
    </field>
    <field name="ip.src" showname="Source: 172.16.105.101 (172.16.105.101)" size="4" pos="26" show="172.16.105.101" value="ac106965"/>
    <field name="ip.addr" showname="Source or Destination Address: 172.16.105.101 (172.16.105.101)" hide="yes" size="4" pos="26" show="172.16.105.101" value="ac106965"/>
    <field name="ip.src_host" showname="Source Host: 172.16.105.101" hide="yes" size="4" pos="26" show="172.16.105.101" value="ac106965"/>
    <field name="ip.host" showname="Source or Destination Host: 172.16.105.101" hide="yes" size="4" pos="26" show="172.16.105.101" value="ac106965"/>
    <field name="ip.dst" showname="Destination: 15.146.193.67 (15.146.193.67)" size="4" pos="30" show="15.146.193.67" value="0f92c143"/>
    <field name="ip.addr" showname="Source or Destination Address: 15.146.193.67 (15.146.193.67)" hide="yes" size="4" pos="30" show="15.146.193.67" value="0f92c143"/>
    <field name="ip.dst_host" showname="Destination Host: 15.146.193.67" hide="yes" size="4" pos="30" show="15.146.193.67" value="0f92c143"/>
    <field name="ip.host" showname="Source or Destination Host: 15.146.193.67" hide="yes" size="4" pos="30" show="15.146.193.67" value="0f92c143"/>
    <field name="" show="Source GeoIP: Unknown" size="4" pos="26" value="ac106965"/>
    <field name="" show="Destination GeoIP: Unknown" size="4" pos="30" value="0f92c143"/>
  </proto>
  <proto name="tcp" showname="Transmission Control Protocol, Src Port: 56548 (56548), Dst Port: 6633 (6633), Seq: 49, Ack: 69, Len: 336" size="32" pos="34">
    <field name="tcp.srcport" showname="Source port: 56548 (56548)" size="2" pos="34" show="56548" value="dce4"/>
    <field name="tcp.dstport" showname="Destination port: 6633 (6633)" size="2" pos="36" show="6633" value="19e9"/>
    <field name="tcp.port" showname="Source or Destination Port: 56548" hide="yes" size="2" pos="34" show="56548" value="dce4"/>
    <field name="tcp.port" showname="Source or Destination Port: 6633" hide="yes" size="2" pos="36" show="6633" value="19e9"/>
    <field name="tcp.stream" showname="Stream index: 0" size="0" pos="34" show="0"/>
    <field name="tcp.len" showname="TCP Segment Len: 336" hide="yes" size="1" pos="46" show="336" value="80"/>
    <field name="tcp.seq" showname="Sequence number: 49    (relative sequence number)" size="4" pos="38" show="49" value="2b879f5f"/>
    <field name="tcp.nxtseq" showname="Next sequence number: 385    (relative sequence number)" size="0" pos="34" show="385"/>
    <field name="tcp.ack" showname="Acknowledgment number: 69    (relative ack number)" size="4" pos="42" show="69" value="9d90e316"/>
    <field name="tcp.hdr_len" showname="Header length: 32 bytes" size="1" pos="46" show="32" value="80"/>
    <field name="tcp.flags" showname="Flags: 0x018 (PSH, ACK)" size="2" pos="46" show="0x0018" value="18" unmaskedvalue="8018">
      <field name="tcp.flags.res" showname="000. .... .... = Reserved: Not set" size="1" pos="46" show="0" value="0" unmaskedvalue="80"/>
      <field name="tcp.flags.ns" showname="...0 .... .... = Nonce: Not set" size="1" pos="46" show="0" value="0" unmaskedvalue="80"/>
      <field name="tcp.flags.cwr" showname=".... 0... .... = Congestion Window Reduced (CWR): Not set" size="1" pos="47" show="0" value="0" unmaskedvalue="18"/>
      <field name="tcp.flags.ecn" showname=".... .0.. .... = ECN-Echo: Not set" size="1" pos="47" show="0" value="0" unmaskedvalue="18"/>
      <field name="tcp.flags.urg" showname=".... ..0. .... = Urgent: Not set" size="1" pos="47" show="0" value="0" unmaskedvalue="18"/>
      <field name="tcp.flags.ack" showname=".... ...1 .... = Acknowledgment: Set" size="1" pos="47" show="1" value="1" unmaskedvalue="18"/>
      <field name="tcp.flags.push" showname=".... .... 1... = Push: Set" size="1" pos="47" show="1" value="1" unmaskedvalue="18"/>
      <field name="tcp.flags.reset" showname=".... .... .0.. = Reset: Not set" size="1" pos="47" show="0" value="0" unmaskedvalue="18"/>
      <field name="tcp.flags.syn" showname=".... .... ..0. = Syn: Not set" size="1" pos="47" show="0" value="0" unmaskedvalue="18"/>
      <field name="tcp.flags.fin" showname=".... .... ...0 = Fin: Not set" size="1" pos="47" show="0" value="0" unmaskedvalue="18"/>
    </field>
    <field name="tcp.window_size_value" showname="Window size value: 33270" size="2" pos="48" show="33270" value="81f6"/>
    <field name="tcp.window_size" showname="Calculated window size: 66540" size="2" pos="48" show="66540" value="81f6"/>
    <field name="tcp.window_size_scalefactor" showname="Window size scaling factor: 2" size="2" pos="48" show="2" value="81f6"/>
    <field name="tcp.checksum" showname="Checksum: 0x1cfd [validation disabled]" size="2" pos="50" show="0x1cfd" value="1cfd">
      <field name="tcp.checksum_good" showname="Good Checksum: False" size="2" pos="50" show="0" value="1cfd"/>
      <field name="tcp.checksum_bad" showname="Bad Checksum: False" size="2" pos="50" show="0" value="1cfd"/>
    </field>
    <field name="tcp.options" showname="Options: (12 bytes), No-Operation (NOP), No-Operation (NOP), Timestamps" size="12" pos="54" show="01:01:08:0a:4d:18:3a:24:00:03:05:17" value="0101080a4d183a2400030517">
      <field name="" show="No-Operation (NOP)" size="1" pos="54" value="01">
        <field name="ip.opt.type" showname="Type: 1" size="1" pos="54" show="1" value="01">
          <field name="ip.opt.type.copy" showname="0... .... = Copy on fragmentation: No" size="1" pos="54" show="0" value="0" unmaskedvalue="01"/>
          <field name="ip.opt.type.class" showname=".00. .... = Class: Control (0)" size="1" pos="54" show="0" value="0" unmaskedvalue="01"/>
          <field name="ip.opt.type.number" showname="...0 0001 = Number: No-Operation (NOP) (1)" size="1" pos="54" show="1" value="1" unmaskedvalue="01"/>
        </field>
      </field>
      <field name="" show="No-Operation (NOP)" size="1" pos="55" value="01">
        <field name="ip.opt.type" showname="Type: 1" size="1" pos="55" show="1" value="01">
          <field name="ip.opt.type.copy" showname="0... .... = Copy on fragmentation: No" size="1" pos="55" show="0" value="0" unmaskedvalue="01"/>
          <field name="ip.opt.type.class" showname=".00. .... = Class: Control (0)" size="1" pos="55" show="0" value="0" unmaskedvalue="01"/>
          <field name="ip.opt.type.number" showname="...0 0001 = Number: No-Operation (NOP) (1)" size="1" pos="55" show="1" value="1" unmaskedvalue="01"/>
        </field>
      </field>
      <field name="" show="Timestamps: TSval 1293433380, TSecr 197911" size="10" pos="56" value="080a4d183a2400030517">
        <field name="tcp.option_kind" showname="Kind: Timestamp (8)" size="1" pos="56" show="8" value="08"/>
        <field name="tcp.option_len" showname="Length: 10" size="1" pos="57" show="10" value="0a"/>
        <field name="tcp.options.timestamp.tsval" showname="Timestamp value: 1293433380" size="4" pos="58" show="1293433380" value="4d183a24"/>
        <field name="tcp.options.timestamp.tsecr" showname="Timestamp echo reply: 197911" size="4" pos="62" show="197911" value="00030517"/>
      </field>
    </field>
    <field name="tcp.analysis" showname="SEQ/ACK analysis" size="0" pos="34" show="" value="">
      <field name="tcp.analysis.bytes_in_flight" showname="Bytes in flight: 336" size="0" pos="34" show="336"/>
    </field>
  </proto>
  <proto name="fake-field-wrapper">
    <field name="data" value="041301500000042f000d0000000000000000000c000000000021f71a873400003132000000000000000000000000000000000000000000010000000000000000000000000000000000000000000000000000000b000000000021f71a8735000031310000000000000000000000000000000000000000000400000220000000000000022f00000000d4a51000d4a510000000000d000000000021f71a87330000313300000000000000000000000000000000000000000001000000000000000000000000000000000000000000000000fffffffe000000000021f71a870000006c6f63616c0000000000000000000000000000000000000000000000000000000000000000000000000000000000000000000005000000000021f71a873b000035000000000000000000000000000000000000000000000400000220000000000000022f00000000d4a51000d4a51000">
      <field name="data.data" showname="Data: 041301500000042f000d0000000000000000000c00000000..." size="336" pos="66" show="04:13:01:50:00:00:04:2f:00:0d:00:00:00:00:00:00:00:00:00:0c:00:00:00:00:00:21:f7:1a:87:34:00:00:31:32:00:00:00:00:00:00:00:00:00:00:00:00:00:00:00:00:00:00:00:00:00:01:00:00:00:00:00:00:00:00:00:00:00:00:00:00:00:00:00:00:00:00:00:00:00:00:00:00:00:0b:00:00:00:00:00:21:f7:1a:87:35:00:00:31:31:00:00:00:00:00:00:00:00:00:00:00:00:00:00:00:00:00:00:00:00:00:04:00:00:02:20:00:00:00:00:00:00:02:2f:00:00:00:00:d4:a5:10:00:d4:a5:10:00:00:00:00:0d:00:00:00:00:00:21:f7:1a:87:33:00:00:31:33:00:00:00:00:00:00:00:00:00:00:00:00:00:00:00:00:00:00:00:00:00:01:00:00:00:00:00:00:00:00:00:00:00:00:00:00:00:00:00:00:00:00:00:00:00:00:ff:ff:ff:fe:00:00:00:00:00:21:f7:1a:87:00:00:00:6c:6f:63:61:6c:00:00:00:00:00:00:00:00:00:00:00:00:00:00:00:00:00:00:00:00:00:00:00:00:00:00:00:00:00:00:00:00:00:00:00:00:00:00:00:00:00:00:00:00:00:00:05:00:00:00:00:00:21:f7:1a:87:3b:00:00:35:00:00:00:00:00:00:00:00:00:00:00:00:00:00:00:00:00:00:00:00:00:00:04:00:00:02:20:00:00:00:00:00:00:02:2f:00:00:00:00:d4:a5:10:00:d4:a5:10:00" value="041301500000042f000d0000000000000000000c000000000021f71a873400003132000000000000000000000000000000000000000000010000000000000000000000000000000000000000000000000000000b000000000021f71a8735000031310000000000000000000000000000000000000000000400000220000000000000022f00000000d4a51000d4a510000000000d000000000021f71a87330000313300000000000000000000000000000000000000000001000000000000000000000000000000000000000000000000fffffffe000000000021f71a870000006c6f63616c0000000000000000000000000000000000000000000000000000000000000000000000000000000000000000000005000000000021f71a873b000035000000000000000000000000000000000000000000000400000220000000000000022f00000000d4a51000d4a51000"/>
      <field name="data.len" showname="Length: 336" size="0" pos="66" show="336"/>
  </field>
</proto>
</packet>

<packet>
  <proto name="geninfo" pos="0" showname="General information" size="1570">
    <field name="num" pos="0" show="16" showname="Number" value="10" size="1570"/>
    <field name="len" pos="0" show="1570" showname="Frame Length" value="622" size="1570"/>
    <field name="caplen" pos="0" show="1570" showname="Captured Length" value="622" size="1570"/>
    <field name="timestamp" pos="0" show="Feb  4, 2012 21:50:26.329652000 Pacific Standard Time" showname="Captured Time" value="1328421026.329652000" size="1570"/>
  </proto>
  <proto name="frame" showname="Frame 16: 1570 bytes on wire (12560 bits), 1570 bytes captured (12560 bits)" size="1570" pos="0">
    <field name="frame.encap_type" showname="Encapsulation type: Ethernet (1)" size="0" pos="0" show="1"/>
    <field name="frame.time" showname="Arrival Time: Feb  4, 2012 21:50:26.329652000 Pacific Standard Time" size="0" pos="0" show="Feb  4, 2012 21:50:26.329652000"/>
    <field name="frame.offset_shift" showname="Time shift for this packet: 0.000000000 seconds" size="0" pos="0" show="0.000000000"/>
    <field name="frame.time_epoch" showname="Epoch Time: 1328421026.329652000 seconds" size="0" pos="0" show="1328421026.329652000"/>
    <field name="frame.time_delta" showname="Time delta from previous captured frame: 0.000247000 seconds" size="0" pos="0" show="0.000247000"/>
    <field name="frame.time_delta_displayed" showname="Time delta from previous displayed frame: 0.000247000 seconds" size="0" pos="0" show="0.000247000"/>
    <field name="frame.time_relative" showname="Time since reference or first frame: 2.017069000 seconds" size="0" pos="0" show="2.017069000"/>
    <field name="frame.number" showname="Frame Number: 16" size="0" pos="0" show="16"/>
    <field name="frame.len" showname="Frame Length: 1570 bytes (12560 bits)" size="0" pos="0" show="1570"/>
    <field name="frame.cap_len" showname="Capture Length: 1570 bytes (12560 bits)" size="0" pos="0" show="1570"/>
    <field name="frame.marked" showname="Frame is marked: False" size="0" pos="0" show="0"/>
    <field name="frame.ignored" showname="Frame is ignored: False" size="0" pos="0" show="0"/>
    <field name="frame.protocols" showname="Protocols in frame: eth:ip:tcp:data" size="0" pos="0" show="eth:ip:tcp:data"/>
    <field name="frame.coloring_rule.name" showname="Coloring Rule Name: TCP" size="0" pos="0" show="TCP"/>
    <field name="frame.coloring_rule.string" showname="Coloring Rule String: tcp" size="0" pos="0" show="tcp"/>
  </proto>
  <proto name="eth" showname="Ethernet II, Src: HpnSuppl_f3:48:00 (00:21:f7:f3:48:00), Dst: Vmware_d3:f3:c8 (00:0c:29:d3:f3:c8)" size="14" pos="0">
    <field name="eth.dst" showname="Destination: Vmware_d3:f3:c8 (00:0c:29:d3:f3:c8)" size="6" pos="0" show="00:0c:29:d3:f3:c8" value="000c29d3f3c8">
      <field name="eth.addr" showname="Address: Vmware_d3:f3:c8 (00:0c:29:d3:f3:c8)" size="6" pos="0" show="00:0c:29:d3:f3:c8" value="000c29d3f3c8"/>
      <field name="eth.lg" showname=".... ..0. .... .... .... .... = LG bit: Globally unique address (factory default)" size="3" pos="0" show="0" value="0" unmaskedvalue="000c29"/>
      <field name="eth.ig" showname=".... ...0 .... .... .... .... = IG bit: Individual address (unicast)" size="3" pos="0" show="0" value="0" unmaskedvalue="000c29"/>
    </field>
    <field name="eth.src" showname="Source: HpnSuppl_f3:48:00 (00:21:f7:f3:48:00)" size="6" pos="6" show="00:21:f7:f3:48:00" value="0021f7f34800">
      <field name="eth.addr" showname="Address: HpnSuppl_f3:48:00 (00:21:f7:f3:48:00)" size="6" pos="6" show="00:21:f7:f3:48:00" value="0021f7f34800"/>
      <field name="eth.lg" showname=".... ..0. .... .... .... .... = LG bit: Globally unique address (factory default)" size="3" pos="6" show="0" value="0" unmaskedvalue="0021f7"/>
      <field name="eth.ig" showname=".... ...0 .... .... .... .... = IG bit: Individual address (unicast)" size="3" pos="6" show="0" value="0" unmaskedvalue="0021f7"/>
    </field>
    <field name="eth.type" showname="Type: IP (0x0800)" size="2" pos="12" show="0x0800" value="0800"/>
  </proto>
  <proto name="ip" showname="Internet Protocol Version 4, Src: 172.16.105.101 (172.16.105.101), Dst: 15.146.193.67 (15.146.193.67)" size="20" pos="14">
    <field name="ip.version" showname="Version: 4" size="1" pos="14" show="4" value="45"/>
    <field name="ip.hdr_len" showname="Header length: 20 bytes" size="1" pos="14" show="20" value="45"/>
    <field name="ip.dsfield" showname="Differentiated Services Field: 0x00 (DSCP 0x00: Default; ECN: 0x00: Not-ECT (Not ECN-Capable Transport))" size="1" pos="15" show="0" value="00">
      <field name="ip.dsfield.dscp" showname="0000 00.. = Differentiated Services Codepoint: Default (0x00)" size="1" pos="15" show="0x00" value="0" unmaskedvalue="00"/>
      <field name="ip.dsfield.ecn" showname=".... ..00 = Explicit Congestion Notification: Not-ECT (Not ECN-Capable Transport) (0x00)" size="1" pos="15" show="0x00" value="0" unmaskedvalue="00"/>
    </field>
    <field name="ip.len" showname="Total Length: 1556" size="2" pos="16" show="1556" value="0614"/>
    <field name="ip.id" showname="Identification: 0x7a75 (31349)" size="2" pos="18" show="0x7a75" value="7a75"/>
    <field name="ip.flags" showname="Flags: 0x02 (Don&apos;t Fragment)" size="1" pos="20" show="0x02" value="40">
      <field name="ip.flags.rb" showname="0... .... = Reserved bit: Not set" size="1" pos="20" show="0" value="40"/>
      <field name="ip.flags.df" showname=".1.. .... = Don&apos;t fragment: Set" size="1" pos="20" show="1" value="40"/>
      <field name="ip.flags.mf" showname="..0. .... = More fragments: Not set" size="1" pos="20" show="0" value="40"/>
    </field>
    <field name="ip.frag_offset" showname="Fragment offset: 0" size="2" pos="20" show="0" value="4000"/>
    <field name="ip.ttl" showname="Time to live: 61" size="1" pos="22" show="61" value="3d"/>
    <field name="ip.proto" showname="Protocol: TCP (6)" size="1" pos="23" show="6" value="06"/>
    <field name="ip.checksum" showname="Header checksum: 0xd723 [correct]" size="2" pos="24" show="0xd723" value="d723">
      <field name="ip.checksum_good" showname="Good: True" size="2" pos="24" show="1" value="d723"/>
      <field name="ip.checksum_bad" showname="Bad: False" size="2" pos="24" show="0" value="d723"/>
    </field>
    <field name="ip.src" showname="Source: 172.16.105.101 (172.16.105.101)" size="4" pos="26" show="172.16.105.101" value="ac106965"/>
    <field name="ip.addr" showname="Source or Destination Address: 172.16.105.101 (172.16.105.101)" hide="yes" size="4" pos="26" show="172.16.105.101" value="ac106965"/>
    <field name="ip.src_host" showname="Source Host: 172.16.105.101" hide="yes" size="4" pos="26" show="172.16.105.101" value="ac106965"/>
    <field name="ip.host" showname="Source or Destination Host: 172.16.105.101" hide="yes" size="4" pos="26" show="172.16.105.101" value="ac106965"/>
    <field name="ip.dst" showname="Destination: 15.146.193.67 (15.146.193.67)" size="4" pos="30" show="15.146.193.67" value="0f92c143"/>
    <field name="ip.addr" showname="Source or Destination Address: 15.146.193.67 (15.146.193.67)" hide="yes" size="4" pos="30" show="15.146.193.67" value="0f92c143"/>
    <field name="ip.dst_host" showname="Destination Host: 15.146.193.67" hide="yes" size="4" pos="30" show="15.146.193.67" value="0f92c143"/>
    <field name="ip.host" showname="Source or Destination Host: 15.146.193.67" hide="yes" size="4" pos="30" show="15.146.193.67" value="0f92c143"/>
    <field name="" show="Source GeoIP: Unknown" size="4" pos="26" value="ac106965"/>
    <field name="" show="Destination GeoIP: Unknown" size="4" pos="30" value="0f92c143"/>
  </proto>
  <proto name="tcp" showname="Transmission Control Protocol, Src Port: 56548 (56548), Dst Port: 6633 (6633), Seq: 385, Ack: 69, Len: 1504" size="32" pos="34">
    <field name="tcp.srcport" showname="Source port: 56548 (56548)" size="2" pos="34" show="56548" value="dce4"/>
    <field name="tcp.dstport" showname="Destination port: 6633 (6633)" size="2" pos="36" show="6633" value="19e9"/>
    <field name="tcp.port" showname="Source or Destination Port: 56548" hide="yes" size="2" pos="34" show="56548" value="dce4"/>
    <field name="tcp.port" showname="Source or Destination Port: 6633" hide="yes" size="2" pos="36" show="6633" value="19e9"/>
    <field name="tcp.stream" showname="Stream index: 0" size="0" pos="34" show="0"/>
    <field name="tcp.len" showname="TCP Segment Len: 1504" hide="yes" size="1" pos="46" show="1504" value="80"/>
    <field name="tcp.seq" showname="Sequence number: 385    (relative sequence number)" size="4" pos="38" show="385" value="2b87a0af"/>
    <field name="tcp.nxtseq" showname="Next sequence number: 1889    (relative sequence number)" size="0" pos="34" show="1889"/>
    <field name="tcp.ack" showname="Acknowledgment number: 69    (relative ack number)" size="4" pos="42" show="69" value="9d90e316"/>
    <field name="tcp.hdr_len" showname="Header length: 32 bytes" size="1" pos="46" show="32" value="80"/>
    <field name="tcp.flags" showname="Flags: 0x018 (PSH, ACK)" size="2" pos="46" show="0x0018" value="18" unmaskedvalue="8018">
      <field name="tcp.flags.res" showname="000. .... .... = Reserved: Not set" size="1" pos="46" show="0" value="0" unmaskedvalue="80"/>
      <field name="tcp.flags.ns" showname="...0 .... .... = Nonce: Not set" size="1" pos="46" show="0" value="0" unmaskedvalue="80"/>
      <field name="tcp.flags.cwr" showname=".... 0... .... = Congestion Window Reduced (CWR): Not set" size="1" pos="47" show="0" value="0" unmaskedvalue="18"/>
      <field name="tcp.flags.ecn" showname=".... .0.. .... = ECN-Echo: Not set" size="1" pos="47" show="0" value="0" unmaskedvalue="18"/>
      <field name="tcp.flags.urg" showname=".... ..0. .... = Urgent: Not set" size="1" pos="47" show="0" value="0" unmaskedvalue="18"/>
      <field name="tcp.flags.ack" showname=".... ...1 .... = Acknowledgment: Set" size="1" pos="47" show="1" value="1" unmaskedvalue="18"/>
      <field name="tcp.flags.push" showname=".... .... 1... = Push: Set" size="1" pos="47" show="1" value="1" unmaskedvalue="18"/>
      <field name="tcp.flags.reset" showname=".... .... .0.. = Reset: Not set" size="1" pos="47" show="0" value="0" unmaskedvalue="18"/>
      <field name="tcp.flags.syn" showname=".... .... ..0. = Syn: Not set" size="1" pos="47" show="0" value="0" unmaskedvalue="18"/>
      <field name="tcp.flags.fin" showname=".... .... ...0 = Fin: Not set" size="1" pos="47" show="0" value="0" unmaskedvalue="18"/>
    </field>
    <field name="tcp.window_size_value" showname="Window size value: 33270" size="2" pos="48" show="33270" value="81f6"/>
    <field name="tcp.window_size" showname="Calculated window size: 66540" size="2" pos="48" show="66540" value="81f6"/>
    <field name="tcp.window_size_scalefactor" showname="Window size scaling factor: 2" size="2" pos="48" show="2" value="81f6"/>
    <field name="tcp.checksum" showname="Checksum: 0xec51 [validation disabled]" size="2" pos="50" show="0xec51" value="ec51">
      <field name="tcp.checksum_good" showname="Good Checksum: False" size="2" pos="50" show="0" value="ec51"/>
      <field name="tcp.checksum_bad" showname="Bad Checksum: False" size="2" pos="50" show="0" value="ec51"/>
    </field>
    <field name="tcp.options" showname="Options: (12 bytes), No-Operation (NOP), No-Operation (NOP), Timestamps" size="12" pos="54" show="01:01:08:0a:4d:18:3a:24:00:03:05:17" value="0101080a4d183a2400030517">
      <field name="" show="No-Operation (NOP)" size="1" pos="54" value="01">
        <field name="ip.opt.type" showname="Type: 1" size="1" pos="54" show="1" value="01">
          <field name="ip.opt.type.copy" showname="0... .... = Copy on fragmentation: No" size="1" pos="54" show="0" value="0" unmaskedvalue="01"/>
          <field name="ip.opt.type.class" showname=".00. .... = Class: Control (0)" size="1" pos="54" show="0" value="0" unmaskedvalue="01"/>
          <field name="ip.opt.type.number" showname="...0 0001 = Number: No-Operation (NOP) (1)" size="1" pos="54" show="1" value="1" unmaskedvalue="01"/>
        </field>
      </field>
      <field name="" show="No-Operation (NOP)" size="1" pos="55" value="01">
        <field name="ip.opt.type" showname="Type: 1" size="1" pos="55" show="1" value="01">
          <field name="ip.opt.type.copy" showname="0... .... = Copy on fragmentation: No" size="1" pos="55" show="0" value="0" unmaskedvalue="01"/>
          <field name="ip.opt.type.class" showname=".00. .... = Class: Control (0)" size="1" pos="55" show="0" value="0" unmaskedvalue="01"/>
          <field name="ip.opt.type.number" showname="...0 0001 = Number: No-Operation (NOP) (1)" size="1" pos="55" show="1" value="1" unmaskedvalue="01"/>
        </field>
      </field>
      <field name="" show="Timestamps: TSval 1293433380, TSecr 197911" size="10" pos="56" value="080a4d183a2400030517">
        <field name="tcp.option_kind" showname="Kind: Timestamp (8)" size="1" pos="56" show="8" value="08"/>
        <field name="tcp.option_len" showname="Length: 10" size="1" pos="57" show="10" value="0a"/>
        <field name="tcp.options.timestamp.tsval" showname="Timestamp value: 1293433380" size="4" pos="58" show="1293433380" value="4d183a24"/>
        <field name="tcp.options.timestamp.tsecr" showname="Timestamp echo reply: 197911" size="4" pos="62" show="197911" value="00030517"/>
      </field>
    </field>
    <field name="tcp.analysis" showname="SEQ/ACK analysis" size="0" pos="34" show="" value="">
      <field name="tcp.analysis.bytes_in_flight" showname="Bytes in flight: 1840" size="0" pos="34" show="1840"/>
    </field>
  </proto>
  <proto name="fake-field-wrapper">
    <field name="data" value="041305e000000430000c00000000000000b00000000000005374617274000000000000000000000000000000000000000000000000000000000000000000000000000000000000000000000300000001000000040000000000010004000000000002000564000000000300056400000000040004000000000005000400000000000600040000000000070004000000000008000400000000000a000400000000000c000400000000000d000400000000000e000400000000000f0004000000000140640000000000506f6c696379205461626c650000000000000000000000000000000000000000000000000000000000000000000000000000000300000000000000100001000400040004000600040001001000010004000400040006000400020005c800000000030005c8000000000400040000000000050004000000000006000c0000000400190004000000000007000800000004000800408000000480000a0280000c028000100180001401800016048000180480001a0280001c0280001e028000200280002601800028018000341080003610000a003c8000000480000c028000100180001401800016048000180480001a0280001c0280001e02800020028000260180002801800034108000361000000000000c000400000000000d000400000000000e000c80000e018000100100000000000f00040000000003e0c800000000005357205461626c65203100000000000000000000000000000000000000000000ffffffffffffffffffffffffffffffff0000000300010000000000180001000400020004000300040004000400050004000100180001000400020004000300040004000400050004000200040000000000030004000000000004002000000004000b0004000c0004001600040017000400180004001900040005002000000004000b0004000c0004001600040017000400180004001900040006002000000004000b0004000c0004001600040017000400180004001900040007002000000004000b0004000c0004001600040017000400180004001900040008008080000004800006068000080680000a0280000c0280000e01800010018000120180001401800016048000180480001a0280001c0280001e0280002002800026018000280180002a0280002c0480002e04800030068000320680003410800036108000380480003a0180003c0180003e10800040068000420680004e02000a008080000004800006068000080680000a0280000c0280000e01800010018000120180001401800016048000180480001a0280001c0280001e0280002002800026018000280180002a0280002c0480002e04800030068000320680003410800036108000380480003a0180003c0180003e10800040068000420680004e02000c0078800006068000080680000a0280000c0280000e01800010018000120180001401800016048000180480001a0280001c0280001e0280002002800026018000280180002a0280002c0480002e04800030068000320680003410800036108000380480003a0180003c0180003e108000400680004206000d0078800006068000080680000a0280000c0280000e01800010018000120180001401800016048000180480001a0280001c0280001e0280002002800026018000280180002a0280002c0480002e04800030068000320680003410800036108000380480003a0180003c0180003e108000400680004206000e0078800006068000080680000a0280000c0280000e01800010018000120180001401800016048000180480001a0280001c0280001e0280002002800026018000280180002a0280002c0480002e04800030068000320680003410800036108000380480003a0180003c0180003e108000400680004206000f0078800006068000080680000a0280000c0280000e01800010018000120180001401800016048000180480001a0280001c0280001e0280002002800026018000280180002a0280002c0480002e04800030068000320680003410800036108000380480003a0180003c0180003e108000400680004206">
      <field name="data.data" showname="Data: 041305e000000430000c00000000000000b0000000000000..." size="1504" pos="66" show="04:13:05:e0:00:00:04:30:00:0c:00:00:00:00:00:00:00:b0:00:00:00:00:00:00:53:74:61:72:74:00:00:00:00:00:00:00:00:00:00:00:00:00:00:00:00:00:00:00:00:00:00:00:00:00:00:00:00:00:00:00:00:00:00:00:00:00:00:00:00:00:00:00:00:00:00:03:00:00:00:01:00:00:00:04:00:00:00:00:00:01:00:04:00:00:00:00:00:02:00:05:64:00:00:00:00:03:00:05:64:00:00:00:00:04:00:04:00:00:00:00:00:05:00:04:00:00:00:00:00:06:00:04:00:00:00:00:00:07:00:04:00:00:00:00:00:08:00:04:00:00:00:00:00:0a:00:04:00:00:00:00:00:0c:00:04:00:00:00:00:00:0d:00:04:00:00:00:00:00:0e:00:04:00:00:00:00:00:0f:00:04:00:00:00:00:01:40:64:00:00:00:00:00:50:6f:6c:69:63:79:20:54:61:62:6c:65:00:00:00:00:00:00:00:00:00:00:00:00:00:00:00:00:00:00:00:00:00:00:00:00:00:00:00:00:00:00:00:00:00:00:00:00:00:00:00:03:00:00:00:00:00:00:00:10:00:01:00:04:00:04:00:04:00:06:00:04:00:01:00:10:00:01:00:04:00:04:00:04:00:06:00:04:00:02:00:05:c8:00:00:00:00:03:00:05:c8:00:00:00:00:04:00:04:00:00:00:00:00:05:00:04:00:00:00:00:00:06:00:0c:00:00:00:04:00:19:00:04:00:00:00:00:00:07:00:08:00:00:00:04:00:08:00:40:80:00:00:04:80:00:0a:02:80:00:0c:02:80:00:10:01:80:00:14:01:80:00:16:04:80:00:18:04:80:00:1a:02:80:00:1c:02:80:00:1e:02:80:00:20:02:80:00:26:01:80:00:28:01:80:00:34:10:80:00:36:10:00:0a:00:3c:80:00:00:04:80:00:0c:02:80:00:10:01:80:00:14:01:80:00:16:04:80:00:18:04:80:00:1a:02:80:00:1c:02:80:00:1e:02:80:00:20:02:80:00:26:01:80:00:28:01:80:00:34:10:80:00:36:10:00:00:00:00:00:0c:00:04:00:00:00:00:00:0d:00:04:00:00:00:00:00:0e:00:0c:80:00:0e:01:80:00:10:01:00:00:00:00:00:0f:00:04:00:00:00:00:03:e0:c8:00:00:00:00:00:53:57:20:54:61:62:6c:65:20:31:00:00:00:00:00:00:00:00:00:00:00:00:00:00:00:00:00:00:00:00:00:00:ff:ff:ff:ff:ff:ff:ff:ff:ff:ff:ff:ff:ff:ff:ff:ff:00:00:00:03:00:01:00:00:00:00:00:18:00:01:00:04:00:02:00:04:00:03:00:04:00:04:00:04:00:05:00:04:00:01:00:18:00:01:00:04:00:02:00:04:00:03:00:04:00:04:00:04:00:05:00:04:00:02:00:04:00:00:00:00:00:03:00:04:00:00:00:00:00:04:00:20:00:00:00:04:00:0b:00:04:00:0c:00:04:00:16:00:04:00:17:00:04:00:18:00:04:00:19:00:04:00:05:00:20:00:00:00:04:00:0b:00:04:00:0c:00:04:00:16:00:04:00:17:00:04:00:18:00:04:00:19:00:04:00:06:00:20:00:00:00:04:00:0b:00:04:00:0c:00:04:00:16:00:04:00:17:00:04:00:18:00:04:00:19:00:04:00:07:00:20:00:00:00:04:00:0b:00:04:00:0c:00:04:00:16:00:04:00:17:00:04:00:18:00:04:00:19:00:04:00:08:00:80:80:00:00:04:80:00:06:06:80:00:08:06:80:00:0a:02:80:00:0c:02:80:00:0e:01:80:00:10:01:80:00:12:01:80:00:14:01:80:00:16:04:80:00:18:04:80:00:1a:02:80:00:1c:02:80:00:1e:02:80:00:20:02:80:00:26:01:80:00:28:01:80:00:2a:02:80:00:2c:04:80:00:2e:04:80:00:30:06:80:00:32:06:80:00:34:10:80:00:36:10:80:00:38:04:80:00:3a:01:80:00:3c:01:80:00:3e:10:80:00:40:06:80:00:42:06:80:00:4e:02:00:0a:00:80:80:00:00:04:80:00:06:06:80:00:08:06:80:00:0a:02:80:00:0c:02:80:00:0e:01:80:00:10:01:80:00:12:01:80:00:14:01:80:00:16:04:80:00:18:04:80:00:1a:02:80:00:1c:02:80:00:1e:02:80:00:20:02:80:00:26:01:80:00:28:01:80:00:2a:02:80:00:2c:04:80:00:2e:04:80:00:30:06:80:00:32:06:80:00:34:10:80:00:36:10:80:00:38:04:80:00:3a:01:80:00:3c:01:80:00:3e:10:80:00:40:06:80:00:42:06:80:00:4e:02:00:0c:00:78:80:00:06:06:80:00:08:06:80:00:0a:02:80:00:0c:02:80:00:0e:01:80:00:10:01:80:00:12:01:80:00:14:01:80:00:16:04:80:00:18:04:80:00:1a:02:80:00:1c:02:80:00:1e:02:80:00:20:02:80:00:26:01:80:00:28:01:80:00:2a:02:80:00:2c:04:80:00:2e:04:80:00:30:06:80:00:32:06:80:00:34:10:80:00:36:10:80:00:38:04:80:00:3a:01:80:00:3c:01:80:00:3e:10:80:00:40:06:80:00:42:06:00:0d:00:78:80:00:06:06:80:00:08:06:80:00:0a:02:80:00:0c:02:80:00:0e:01:80:00:10:01:80:00:12:01:80:00:14:01:80:00:16:04:80:00:18:04:80:00:1a:02:80:00:1c:02:80:00:1e:02:80:00:20:02:80:00:26:01:80:00:28:01:80:00:2a:02:80:00:2c:04:80:00:2e:04:80:00:30:06:80:00:32:06:80:00:34:10:80:00:36:10:80:00:38:04:80:00:3a:01:80:00:3c:01:80:00:3e:10:80:00:40:06:80:00:42:06:00:0e:00:78:80:00:06:06:80:00:08:06:80:00:0a:02:80:00:0c:02:80:00:0e:01:80:00:10:01:80:00:12:01:80:00:14:01:80:00:16:04:80:00:18:04:80:00:1a:02:80:00:1c:02:80:00:1e:02:80:00:20:02:80:00:26:01:80:00:28:01:80:00:2a:02:80:00:2c:04:80:00:2e:04:80:00:30:06:80:00:32:06:80:00:34:10:80:00:36:10:80:00:38:04:80:00:3a:01:80:00:3c:01:80:00:3e:10:80:00:40:06:80:00:42:06:00:0f:00:78:80:00:06:06:80:00:08:06:80:00:0a:02:80:00:0c:02:80:00:0e:01:80:00:10:01:80:00:12:01:80:00:14:01:80:00:16:04:80:00:18:04:80:00:1a:02:80:00:1c:02:80:00:1e:02:80:00:20:02:80:00:26:01:80:00:28:01:80:00:2a:02:80:00:2c:04:80:00:2e:04:80:00:30:06:80:00:32:06:80:00:34:10:80:00:36:10:80:00:38:04:80:00:3a:01:80:00:3c:01:80:00:3e:10:80:00:40:06:80:00:42:06" value="041305e000000430000c00000000000000b00000000000005374617274000000000000000000000000000000000000000000000000000000000000000000000000000000000000000000000300000001000000040000000000010004000000000002000564000000000300056400000000040004000000000005000400000000000600040000000000070004000000000008000400000000000a000400000000000c000400000000000d000400000000000e000400000000000f0004000000000140640000000000506f6c696379205461626c650000000000000000000000000000000000000000000000000000000000000000000000000000000300000000000000100001000400040004000600040001001000010004000400040006000400020005c800000000030005c8000000000400040000000000050004000000000006000c0000000400190004000000000007000800000004000800408000000480000a0280000c028000100180001401800016048000180480001a0280001c0280001e028000200280002601800028018000341080003610000a003c8000000480000c028000100180001401800016048000180480001a0280001c0280001e02800020028000260180002801800034108000361000000000000c000400000000000d000400000000000e000c80000e018000100100000000000f00040000000003e0c800000000005357205461626c65203100000000000000000000000000000000000000000000ffffffffffffffffffffffffffffffff0000000300010000000000180001000400020004000300040004000400050004000100180001000400020004000300040004000400050004000200040000000000030004000000000004002000000004000b0004000c0004001600040017000400180004001900040005002000000004000b0004000c0004001600040017000400180004001900040006002000000004000b0004000c0004001600040017000400180004001900040007002000000004000b0004000c0004001600040017000400180004001900040008008080000004800006068000080680000a0280000c0280000e01800010018000120180001401800016048000180480001a0280001c0280001e0280002002800026018000280180002a0280002c0480002e04800030068000320680003410800036108000380480003a0180003c0180003e10800040068000420680004e02000a008080000004800006068000080680000a0280000c0280000e01800010018000120180001401800016048000180480001a0280001c0280001e0280002002800026018000280180002a0280002c0480002e04800030068000320680003410800036108000380480003a0180003c0180003e10800040068000420680004e02000c0078800006068000080680000a0280000c0280000e01800010018000120180001401800016048000180480001a0280001c0280001e0280002002800026018000280180002a0280002c0480002e04800030068000320680003410800036108000380480003a0180003c0180003e108000400680004206000d0078800006068000080680000a0280000c0280000e01800010018000120180001401800016048000180480001a0280001c0280001e0280002002800026018000280180002a0280002c0480002e04800030068000320680003410800036108000380480003a0180003c0180003e108000400680004206000e0078800006068000080680000a0280000c0280000e01800010018000120180001401800016048000180480001a0280001c0280001e0280002002800026018000280180002a0280002c0480002e04800030068000320680003410800036108000380480003a0180003c0180003e108000400680004206000f0078800006068000080680000a0280000c0280000e01800010018000120180001401800016048000180480001a0280001c0280001e0280002002800026018000280180002a0280002c0480002e04800030068000320680003410800036108000380480003a0180003c0180003e108000400680004206"/>
      <field name="data.len" showname="Length: 1504" size="0" pos="66" show="1504"/>
  </field>
</proto>
</packet>

<packet>
  <proto name="geninfo" pos="0" showname="General information" size="74">
    <field name="num" pos="0" show="21" showname="Number" value="15" size="74"/>
    <field name="len" pos="0" show="74" showname="Frame Length" value="4a" size="74"/>
    <field name="caplen" pos="0" show="74" showname="Captured Length" value="4a" size="74"/>
    <field name="timestamp" pos="0" show="Feb  4, 2012 21:50:26.370646000 Pacific Standard Time" showname="Captured Time" value="1328421026.370646000" size="74"/>
  </proto>
  <proto name="frame" showname="Frame 21: 74 bytes on wire (592 bits), 74 bytes captured (592 bits)" size="74" pos="0">
    <field name="frame.encap_type" showname="Encapsulation type: Ethernet (1)" size="0" pos="0" show="1"/>
    <field name="frame.time" showname="Arrival Time: Feb  4, 2012 21:50:26.370646000 Pacific Standard Time" size="0" pos="0" show="Feb  4, 2012 21:50:26.370646000"/>
    <field name="frame.offset_shift" showname="Time shift for this packet: 0.000000000 seconds" size="0" pos="0" show="0.000000000"/>
    <field name="frame.time_epoch" showname="Epoch Time: 1328421026.370646000 seconds" size="0" pos="0" show="1328421026.370646000"/>
    <field name="frame.time_delta" showname="Time delta from previous captured frame: 0.000048000 seconds" size="0" pos="0" show="0.000048000"/>
    <field name="frame.time_delta_displayed" showname="Time delta from previous displayed frame: 0.040994000 seconds" size="0" pos="0" show="0.040994000"/>
    <field name="frame.time_relative" showname="Time since reference or first frame: 2.058063000 seconds" size="0" pos="0" show="2.058063000"/>
    <field name="frame.number" showname="Frame Number: 21" size="0" pos="0" show="21"/>
    <field name="frame.len" showname="Frame Length: 74 bytes (592 bits)" size="0" pos="0" show="74"/>
    <field name="frame.cap_len" showname="Capture Length: 74 bytes (592 bits)" size="0" pos="0" show="74"/>
    <field name="frame.marked" showname="Frame is marked: False" size="0" pos="0" show="0"/>
    <field name="frame.ignored" showname="Frame is ignored: False" size="0" pos="0" show="0"/>
    <field name="frame.protocols" showname="Protocols in frame: eth:ip:tcp:data" size="0" pos="0" show="eth:ip:tcp:data"/>
    <field name="frame.coloring_rule.name" showname="Coloring Rule Name: TCP" size="0" pos="0" show="TCP"/>
    <field name="frame.coloring_rule.string" showname="Coloring Rule String: tcp" size="0" pos="0" show="tcp"/>
  </proto>
  <proto name="eth" showname="Ethernet II, Src: HpnSuppl_f3:48:00 (00:21:f7:f3:48:00), Dst: Vmware_d3:f3:c8 (00:0c:29:d3:f3:c8)" size="14" pos="0">
    <field name="eth.dst" showname="Destination: Vmware_d3:f3:c8 (00:0c:29:d3:f3:c8)" size="6" pos="0" show="00:0c:29:d3:f3:c8" value="000c29d3f3c8">
      <field name="eth.addr" showname="Address: Vmware_d3:f3:c8 (00:0c:29:d3:f3:c8)" size="6" pos="0" show="00:0c:29:d3:f3:c8" value="000c29d3f3c8"/>
      <field name="eth.lg" showname=".... ..0. .... .... .... .... = LG bit: Globally unique address (factory default)" size="3" pos="0" show="0" value="0" unmaskedvalue="000c29"/>
      <field name="eth.ig" showname=".... ...0 .... .... .... .... = IG bit: Individual address (unicast)" size="3" pos="0" show="0" value="0" unmaskedvalue="000c29"/>
    </field>
    <field name="eth.src" showname="Source: HpnSuppl_f3:48:00 (00:21:f7:f3:48:00)" size="6" pos="6" show="00:21:f7:f3:48:00" value="0021f7f34800">
      <field name="eth.addr" showname="Address: HpnSuppl_f3:48:00 (00:21:f7:f3:48:00)" size="6" pos="6" show="00:21:f7:f3:48:00" value="0021f7f34800"/>
      <field name="eth.lg" showname=".... ..0. .... .... .... .... = LG bit: Globally unique address (factory default)" size="3" pos="6" show="0" value="0" unmaskedvalue="0021f7"/>
      <field name="eth.ig" showname=".... ...0 .... .... .... .... = IG bit: Individual address (unicast)" size="3" pos="6" show="0" value="0" unmaskedvalue="0021f7"/>
    </field>
    <field name="eth.type" showname="Type: IP (0x0800)" size="2" pos="12" show="0x0800" value="0800"/>
  </proto>
  <proto name="ip" showname="Internet Protocol Version 4, Src: 172.16.105.101 (172.16.105.101), Dst: 15.146.193.67 (15.146.193.67)" size="20" pos="14">
    <field name="ip.version" showname="Version: 4" size="1" pos="14" show="4" value="45"/>
    <field name="ip.hdr_len" showname="Header length: 20 bytes" size="1" pos="14" show="20" value="45"/>
    <field name="ip.dsfield" showname="Differentiated Services Field: 0x00 (DSCP 0x00: Default; ECN: 0x00: Not-ECT (Not ECN-Capable Transport))" size="1" pos="15" show="0" value="00">
      <field name="ip.dsfield.dscp" showname="0000 00.. = Differentiated Services Codepoint: Default (0x00)" size="1" pos="15" show="0x00" value="0" unmaskedvalue="00"/>
      <field name="ip.dsfield.ecn" showname=".... ..00 = Explicit Congestion Notification: Not-ECT (Not ECN-Capable Transport) (0x00)" size="1" pos="15" show="0x00" value="0" unmaskedvalue="00"/>
    </field>
    <field name="ip.len" showname="Total Length: 60" size="2" pos="16" show="60" value="003c"/>
    <field name="ip.id" showname="Identification: 0x7a79 (31353)" size="2" pos="18" show="0x7a79" value="7a79"/>
    <field name="ip.flags" showname="Flags: 0x02 (Don&apos;t Fragment)" size="1" pos="20" show="0x02" value="40">
      <field name="ip.flags.rb" showname="0... .... = Reserved bit: Not set" size="1" pos="20" show="0" value="40"/>
      <field name="ip.flags.df" showname=".1.. .... = Don&apos;t fragment: Set" size="1" pos="20" show="1" value="40"/>
      <field name="ip.flags.mf" showname="..0. .... = More fragments: Not set" size="1" pos="20" show="0" value="40"/>
    </field>
    <field name="ip.frag_offset" showname="Fragment offset: 0" size="2" pos="20" show="0" value="4000"/>
    <field name="ip.ttl" showname="Time to live: 61" size="1" pos="22" show="61" value="3d"/>
    <field name="ip.proto" showname="Protocol: TCP (6)" size="1" pos="23" show="6" value="06"/>
    <field name="ip.checksum" showname="Header checksum: 0xdcf7 [correct]" size="2" pos="24" show="0xdcf7" value="dcf7">
      <field name="ip.checksum_good" showname="Good: True" size="2" pos="24" show="1" value="dcf7"/>
      <field name="ip.checksum_bad" showname="Bad: False" size="2" pos="24" show="0" value="dcf7"/>
    </field>
    <field name="ip.src" showname="Source: 172.16.105.101 (172.16.105.101)" size="4" pos="26" show="172.16.105.101" value="ac106965"/>
    <field name="ip.addr" showname="Source or Destination Address: 172.16.105.101 (172.16.105.101)" hide="yes" size="4" pos="26" show="172.16.105.101" value="ac106965"/>
    <field name="ip.src_host" showname="Source Host: 172.16.105.101" hide="yes" size="4" pos="26" show="172.16.105.101" value="ac106965"/>
    <field name="ip.host" showname="Source or Destination Host: 172.16.105.101" hide="yes" size="4" pos="26" show="172.16.105.101" value="ac106965"/>
    <field name="ip.dst" showname="Destination: 15.146.193.67 (15.146.193.67)" size="4" pos="30" show="15.146.193.67" value="0f92c143"/>
    <field name="ip.addr" showname="Source or Destination Address: 15.146.193.67 (15.146.193.67)" hide="yes" size="4" pos="30" show="15.146.193.67" value="0f92c143"/>
    <field name="ip.dst_host" showname="Destination Host: 15.146.193.67" hide="yes" size="4" pos="30" show="15.146.193.67" value="0f92c143"/>
    <field name="ip.host" showname="Source or Destination Host: 15.146.193.67" hide="yes" size="4" pos="30" show="15.146.193.67" value="0f92c143"/>
    <field name="" show="Source GeoIP: Unknown" size="4" pos="26" value="ac106965"/>
    <field name="" show="Destination GeoIP: Unknown" size="4" pos="30" value="0f92c143"/>
  </proto>
  <proto name="tcp" showname="Transmission Control Protocol, Src Port: 50370 (50370), Dst Port: 6633 (6633), Seq: 1, Ack: 1, Len: 8" size="32" pos="34">
    <field name="tcp.srcport" showname="Source port: 50370 (50370)" size="2" pos="34" show="50370" value="c4c2"/>
    <field name="tcp.dstport" showname="Destination port: 6633 (6633)" size="2" pos="36" show="6633" value="19e9"/>
    <field name="tcp.port" showname="Source or Destination Port: 50370" hide="yes" size="2" pos="34" show="50370" value="c4c2"/>
    <field name="tcp.port" showname="Source or Destination Port: 6633" hide="yes" size="2" pos="36" show="6633" value="19e9"/>
    <field name="tcp.stream" showname="Stream index: 1" size="0" pos="34" show="1"/>
    <field name="tcp.len" showname="TCP Segment Len: 8" hide="yes" size="1" pos="46" show="8" value="80"/>
    <field name="tcp.seq" showname="Sequence number: 1    (relative sequence number)" size="4" pos="38" show="1" value="2b8ff5a7"/>
    <field name="tcp.nxtseq" showname="Next sequence number: 9    (relative sequence number)" size="0" pos="34" show="9"/>
    <field name="tcp.ack" showname="Acknowledgment number: 1    (relative ack number)" size="4" pos="42" show="1" value="13b761ed"/>
    <field name="tcp.hdr_len" showname="Header length: 32 bytes" size="1" pos="46" show="32" value="80"/>
    <field name="tcp.flags" showname="Flags: 0x018 (PSH, ACK)" size="2" pos="46" show="0x0018" value="18" unmaskedvalue="8018">
      <field name="tcp.flags.res" showname="000. .... .... = Reserved: Not set" size="1" pos="46" show="0" value="0" unmaskedvalue="80"/>
      <field name="tcp.flags.ns" showname="...0 .... .... = Nonce: Not set" size="1" pos="46" show="0" value="0" unmaskedvalue="80"/>
      <field name="tcp.flags.cwr" showname=".... 0... .... = Congestion Window Reduced (CWR): Not set" size="1" pos="47" show="0" value="0" unmaskedvalue="18"/>
      <field name="tcp.flags.ecn" showname=".... .0.. .... = ECN-Echo: Not set" size="1" pos="47" show="0" value="0" unmaskedvalue="18"/>
      <field name="tcp.flags.urg" showname=".... ..0. .... = Urgent: Not set" size="1" pos="47" show="0" value="0" unmaskedvalue="18"/>
      <field name="tcp.flags.ack" showname=".... ...1 .... = Acknowledgment: Set" size="1" pos="47" show="1" value="1" unmaskedvalue="18"/>
      <field name="tcp.flags.push" showname=".... .... 1... = Push: Set" size="1" pos="47" show="1" value="1" unmaskedvalue="18"/>
      <field name="tcp.flags.reset" showname=".... .... .0.. = Reset: Not set" size="1" pos="47" show="0" value="0" unmaskedvalue="18"/>
      <field name="tcp.flags.syn" showname=".... .... ..0. = Syn: Not set" size="1" pos="47" show="0" value="0" unmaskedvalue="18"/>
      <field name="tcp.flags.fin" showname=".... .... ...0 = Fin: Not set" size="1" pos="47" show="0" value="0" unmaskedvalue="18"/>
    </field>
    <field name="tcp.window_size_value" showname="Window size value: 33304" size="2" pos="48" show="33304" value="8218"/>
    <field name="tcp.window_size" showname="Calculated window size: 66608" size="2" pos="48" show="66608" value="8218"/>
    <field name="tcp.window_size_scalefactor" showname="Window size scaling factor: 2" size="2" pos="48" show="2" value="8218"/>
    <field name="tcp.checksum" showname="Checksum: 0x0647 [validation disabled]" size="2" pos="50" show="0x0647" value="0647">
      <field name="tcp.checksum_good" showname="Good Checksum: False" size="2" pos="50" show="0" value="0647"/>
      <field name="tcp.checksum_bad" showname="Bad Checksum: False" size="2" pos="50" show="0" value="0647"/>
    </field>
    <field name="tcp.options" showname="Options: (12 bytes), No-Operation (NOP), No-Operation (NOP), Timestamps" size="12" pos="54" show="01:01:08:0a:4d:18:3a:4c:00:03:05:e9" value="0101080a4d183a4c000305e9">
      <field name="" show="No-Operation (NOP)" size="1" pos="54" value="01">
        <field name="ip.opt.type" showname="Type: 1" size="1" pos="54" show="1" value="01">
          <field name="ip.opt.type.copy" showname="0... .... = Copy on fragmentation: No" size="1" pos="54" show="0" value="0" unmaskedvalue="01"/>
          <field name="ip.opt.type.class" showname=".00. .... = Class: Control (0)" size="1" pos="54" show="0" value="0" unmaskedvalue="01"/>
          <field name="ip.opt.type.number" showname="...0 0001 = Number: No-Operation (NOP) (1)" size="1" pos="54" show="1" value="1" unmaskedvalue="01"/>
        </field>
      </field>
      <field name="" show="No-Operation (NOP)" size="1" pos="55" value="01">
        <field name="ip.opt.type" showname="Type: 1" size="1" pos="55" show="1" value="01">
          <field name="ip.opt.type.copy" showname="0... .... = Copy on fragmentation: No" size="1" pos="55" show="0" value="0" unmaskedvalue="01"/>
          <field name="ip.opt.type.class" showname=".00. .... = Class: Control (0)" size="1" pos="55" show="0" value="0" unmaskedvalue="01"/>
          <field name="ip.opt.type.number" showname="...0 0001 = Number: No-Operation (NOP) (1)" size="1" pos="55" show="1" value="1" unmaskedvalue="01"/>
        </field>
      </field>
      <field name="" show="Timestamps: TSval 1293433420, TSecr 198121" size="10" pos="56" value="080a4d183a4c000305e9">
        <field name="tcp.option_kind" showname="Kind: Timestamp (8)" size="1" pos="56" show="8" value="08"/>
        <field name="tcp.option_len" showname="Length: 10" size="1" pos="57" show="10" value="0a"/>
        <field name="tcp.options.timestamp.tsval" showname="Timestamp value: 1293433420" size="4" pos="58" show="1293433420" value="4d183a4c"/>
        <field name="tcp.options.timestamp.tsecr" showname="Timestamp echo reply: 198121" size="4" pos="62" show="198121" value="000305e9"/>
      </field>
    </field>
    <field name="tcp.analysis" showname="SEQ/ACK analysis" size="0" pos="34" show="" value="">
      <field name="tcp.analysis.bytes_in_flight" showname="Bytes in flight: 8" size="0" pos="34" show="8"/>
    </field>
  </proto>
  <proto name="fake-field-wrapper">
    <field name="data" value="0400000800000123">
      <field name="data.data" showname="Data: 0400000800000123" size="8" pos="66" show="04:00:00:08:00:00:01:23" value="0400000800000123"/>
      <field name="data.len" showname="Length: 8" size="0" pos="66" show="8"/>
  </field>
</proto>
</packet>

<packet>
  <proto name="geninfo" pos="0" showname="General information" size="82">
    <field name="num" pos="0" show="23" showname="Number" value="17" size="82"/>
    <field name="len" pos="0" show="82" showname="Frame Length" value="52" size="82"/>
    <field name="caplen" pos="0" show="82" showname="Captured Length" value="52" size="82"/>
    <field name="timestamp" pos="0" show="Feb  4, 2012 21:50:26.371626000 Pacific Standard Time" showname="Captured Time" value="1328421026.371626000" size="82"/>
  </proto>
  <proto name="frame" showname="Frame 23: 82 bytes on wire (656 bits), 82 bytes captured (656 bits)" size="82" pos="0">
    <field name="frame.encap_type" showname="Encapsulation type: Ethernet (1)" size="0" pos="0" show="1"/>
    <field name="frame.time" showname="Arrival Time: Feb  4, 2012 21:50:26.371626000 Pacific Standard Time" size="0" pos="0" show="Feb  4, 2012 21:50:26.371626000"/>
    <field name="frame.offset_shift" showname="Time shift for this packet: 0.000000000 seconds" size="0" pos="0" show="0.000000000"/>
    <field name="frame.time_epoch" showname="Epoch Time: 1328421026.371626000 seconds" size="0" pos="0" show="1328421026.371626000"/>
    <field name="frame.time_delta" showname="Time delta from previous captured frame: 0.000974000 seconds" size="0" pos="0" show="0.000974000"/>
    <field name="frame.time_delta_displayed" showname="Time delta from previous displayed frame: 0.000980000 seconds" size="0" pos="0" show="0.000980000"/>
    <field name="frame.time_relative" showname="Time since reference or first frame: 2.059043000 seconds" size="0" pos="0" show="2.059043000"/>
    <field name="frame.number" showname="Frame Number: 23" size="0" pos="0" show="23"/>
    <field name="frame.len" showname="Frame Length: 82 bytes (656 bits)" size="0" pos="0" show="82"/>
    <field name="frame.cap_len" showname="Capture Length: 82 bytes (656 bits)" size="0" pos="0" show="82"/>
    <field name="frame.marked" showname="Frame is marked: False" size="0" pos="0" show="0"/>
    <field name="frame.ignored" showname="Frame is ignored: False" size="0" pos="0" show="0"/>
    <field name="frame.protocols" showname="Protocols in frame: eth:ip:tcp:data" size="0" pos="0" show="eth:ip:tcp:data"/>
    <field name="frame.coloring_rule.name" showname="Coloring Rule Name: TCP" size="0" pos="0" show="TCP"/>
    <field name="frame.coloring_rule.string" showname="Coloring Rule String: tcp" size="0" pos="0" show="tcp"/>
  </proto>
  <proto name="eth" showname="Ethernet II, Src: Vmware_d3:f3:c8 (00:0c:29:d3:f3:c8), Dst: HpnSuppl_f3:48:00 (00:21:f7:f3:48:00)" size="14" pos="0">
    <field name="eth.dst" showname="Destination: HpnSuppl_f3:48:00 (00:21:f7:f3:48:00)" size="6" pos="0" show="00:21:f7:f3:48:00" value="0021f7f34800">
      <field name="eth.addr" showname="Address: HpnSuppl_f3:48:00 (00:21:f7:f3:48:00)" size="6" pos="0" show="00:21:f7:f3:48:00" value="0021f7f34800"/>
      <field name="eth.lg" showname=".... ..0. .... .... .... .... = LG bit: Globally unique address (factory default)" size="3" pos="0" show="0" value="0" unmaskedvalue="0021f7"/>
      <field name="eth.ig" showname=".... ...0 .... .... .... .... = IG bit: Individual address (unicast)" size="3" pos="0" show="0" value="0" unmaskedvalue="0021f7"/>
    </field>
    <field name="eth.src" showname="Source: Vmware_d3:f3:c8 (00:0c:29:d3:f3:c8)" size="6" pos="6" show="00:0c:29:d3:f3:c8" value="000c29d3f3c8">
      <field name="eth.addr" showname="Address: Vmware_d3:f3:c8 (00:0c:29:d3:f3:c8)" size="6" pos="6" show="00:0c:29:d3:f3:c8" value="000c29d3f3c8"/>
      <field name="eth.lg" showname=".... ..0. .... .... .... .... = LG bit: Globally unique address (factory default)" size="3" pos="6" show="0" value="0" unmaskedvalue="000c29"/>
      <field name="eth.ig" showname=".... ...0 .... .... .... .... = IG bit: Individual address (unicast)" size="3" pos="6" show="0" value="0" unmaskedvalue="000c29"/>
    </field>
    <field name="eth.type" showname="Type: IP (0x0800)" size="2" pos="12" show="0x0800" value="0800"/>
  </proto>
  <proto name="ip" showname="Internet Protocol Version 4, Src: 15.146.193.67 (15.146.193.67), Dst: 172.16.105.101 (172.16.105.101)" size="20" pos="14">
    <field name="ip.version" showname="Version: 4" size="1" pos="14" show="4" value="45"/>
    <field name="ip.hdr_len" showname="Header length: 20 bytes" size="1" pos="14" show="20" value="45"/>
    <field name="ip.dsfield" showname="Differentiated Services Field: 0x00 (DSCP 0x00: Default; ECN: 0x00: Not-ECT (Not ECN-Capable Transport))" size="1" pos="15" show="0" value="00">
      <field name="ip.dsfield.dscp" showname="0000 00.. = Differentiated Services Codepoint: Default (0x00)" size="1" pos="15" show="0x00" value="0" unmaskedvalue="00"/>
      <field name="ip.dsfield.ecn" showname=".... ..00 = Explicit Congestion Notification: Not-ECT (Not ECN-Capable Transport) (0x00)" size="1" pos="15" show="0x00" value="0" unmaskedvalue="00"/>
    </field>
    <field name="ip.len" showname="Total Length: 68" size="2" pos="16" show="68" value="0044"/>
    <field name="ip.id" showname="Identification: 0x6405 (25605)" size="2" pos="18" show="0x6405" value="6405"/>
    <field name="ip.flags" showname="Flags: 0x02 (Don&apos;t Fragment)" size="1" pos="20" show="0x02" value="40">
      <field name="ip.flags.rb" showname="0... .... = Reserved bit: Not set" size="1" pos="20" show="0" value="40"/>
      <field name="ip.flags.df" showname=".1.. .... = Don&apos;t fragment: Set" size="1" pos="20" show="1" value="40"/>
      <field name="ip.flags.mf" showname="..0. .... = More fragments: Not set" size="1" pos="20" show="0" value="40"/>
    </field>
    <field name="ip.frag_offset" showname="Fragment offset: 0" size="2" pos="20" show="0" value="4000"/>
    <field name="ip.ttl" showname="Time to live: 64" size="1" pos="22" show="64" value="40"/>
    <field name="ip.proto" showname="Protocol: TCP (6)" size="1" pos="23" show="6" value="06"/>
    <field name="ip.checksum" showname="Header checksum: 0xf063 [correct]" size="2" pos="24" show="0xf063" value="f063">
      <field name="ip.checksum_good" showname="Good: True" size="2" pos="24" show="1" value="f063"/>
      <field name="ip.checksum_bad" showname="Bad: False" size="2" pos="24" show="0" value="f063"/>
    </field>
    <field name="ip.src" showname="Source: 15.146.193.67 (15.146.193.67)" size="4" pos="26" show="15.146.193.67" value="0f92c143"/>
    <field name="ip.addr" showname="Source or Destination Address: 15.146.193.67 (15.146.193.67)" hide="yes" size="4" pos="26" show="15.146.193.67" value="0f92c143"/>
    <field name="ip.src_host" showname="Source Host: 15.146.193.67" hide="yes" size="4" pos="26" show="15.146.193.67" value="0f92c143"/>
    <field name="ip.host" showname="Source or Destination Host: 15.146.193.67" hide="yes" size="4" pos="26" show="15.146.193.67" value="0f92c143"/>
    <field name="ip.dst" showname="Destination: 172.16.105.101 (172.16.105.101)" size="4" pos="30" show="172.16.105.101" value="ac106965"/>
    <field name="ip.addr" showname="Source or Destination Address: 172.16.105.101 (172.16.105.101)" hide="yes" size="4" pos="30" show="172.16.105.101" value="ac106965"/>
    <field name="ip.dst_host" showname="Destination Host: 172.16.105.101" hide="yes" size="4" pos="30" show="172.16.105.101" value="ac106965"/>
    <field name="ip.host" showname="Source or Destination Host: 172.16.105.101" hide="yes" size="4" pos="30" show="172.16.105.101" value="ac106965"/>
    <field name="" show="Source GeoIP: Unknown" size="4" pos="26" value="0f92c143"/>
    <field name="" show="Destination GeoIP: Unknown" size="4" pos="30" value="ac106965"/>
  </proto>
  <proto name="tcp" showname="Transmission Control Protocol, Src Port: 6633 (6633), Dst Port: 50370 (50370), Seq: 1, Ack: 9, Len: 16" size="32" pos="34">
    <field name="tcp.srcport" showname="Source port: 6633 (6633)" size="2" pos="34" show="6633" value="19e9"/>
    <field name="tcp.dstport" showname="Destination port: 50370 (50370)" size="2" pos="36" show="50370" value="c4c2"/>
    <field name="tcp.port" showname="Source or Destination Port: 6633" hide="yes" size="2" pos="34" show="6633" value="19e9"/>
    <field name="tcp.port" showname="Source or Destination Port: 50370" hide="yes" size="2" pos="36" show="50370" value="c4c2"/>
    <field name="tcp.stream" showname="Stream index: 1" size="0" pos="34" show="1"/>
    <field name="tcp.len" showname="TCP Segment Len: 16" hide="yes" size="1" pos="46" show="16" value="80"/>
    <field name="tcp.seq" showname="Sequence number: 1    (relative sequence number)" size="4" pos="38" show="1" value="13b761ed"/>
    <field name="tcp.nxtseq" showname="Next sequence number: 17    (relative sequence number)" size="0" pos="34" show="17"/>
    <field name="tcp.ack" showname="Acknowledgment number: 9    (relative ack number)" size="4" pos="42" show="9" value="2b8ff5af"/>
    <field name="tcp.hdr_len" showname="Header length: 32 bytes" size="1" pos="46" show="32" value="80"/>
    <field name="tcp.flags" showname="Flags: 0x018 (PSH, ACK)" size="2" pos="46" show="0x0018" value="18" unmaskedvalue="8018">
      <field name="tcp.flags.res" showname="000. .... .... = Reserved: Not set" size="1" pos="46" show="0" value="0" unmaskedvalue="80"/>
      <field name="tcp.flags.ns" showname="...0 .... .... = Nonce: Not set" size="1" pos="46" show="0" value="0" unmaskedvalue="80"/>
      <field name="tcp.flags.cwr" showname=".... 0... .... = Congestion Window Reduced (CWR): Not set" size="1" pos="47" show="0" value="0" unmaskedvalue="18"/>
      <field name="tcp.flags.ecn" showname=".... .0.. .... = ECN-Echo: Not set" size="1" pos="47" show="0" value="0" unmaskedvalue="18"/>
      <field name="tcp.flags.urg" showname=".... ..0. .... = Urgent: Not set" size="1" pos="47" show="0" value="0" unmaskedvalue="18"/>
      <field name="tcp.flags.ack" showname=".... ...1 .... = Acknowledgment: Set" size="1" pos="47" show="1" value="1" unmaskedvalue="18"/>
      <field name="tcp.flags.push" showname=".... .... 1... = Push: Set" size="1" pos="47" show="1" value="1" unmaskedvalue="18"/>
      <field name="tcp.flags.reset" showname=".... .... .0.. = Reset: Not set" size="1" pos="47" show="0" value="0" unmaskedvalue="18"/>
      <field name="tcp.flags.syn" showname=".... .... ..0. = Syn: Not set" size="1" pos="47" show="0" value="0" unmaskedvalue="18"/>
      <field name="tcp.flags.fin" showname=".... .... ...0 = Fin: Not set" size="1" pos="47" show="0" value="0" unmaskedvalue="18"/>
    </field>
    <field name="tcp.window_size_value" showname="Window size value: 227" size="2" pos="48" show="227" value="00e3"/>
    <field name="tcp.window_size" showname="Calculated window size: 14528" size="2" pos="48" show="14528" value="00e3"/>
    <field name="tcp.window_size_scalefactor" showname="Window size scaling factor: 64" size="2" pos="48" show="64" value="00e3"/>
    <field name="tcp.checksum" showname="Checksum: 0xe681 [validation disabled]" size="2" pos="50" show="0xe681" value="e681">
      <field name="tcp.checksum_good" showname="Good Checksum: False" size="2" pos="50" show="0" value="e681"/>
      <field name="tcp.checksum_bad" showname="Bad Checksum: False" size="2" pos="50" show="0" value="e681"/>
    </field>
    <field name="tcp.options" showname="Options: (12 bytes), No-Operation (NOP), No-Operation (NOP), Timestamps" size="12" pos="54" show="01:01:08:0a:00:03:05:ea:4d:18:3a:4c" value="0101080a000305ea4d183a4c">
      <field name="" show="No-Operation (NOP)" size="1" pos="54" value="01">
        <field name="ip.opt.type" showname="Type: 1" size="1" pos="54" show="1" value="01">
          <field name="ip.opt.type.copy" showname="0... .... = Copy on fragmentation: No" size="1" pos="54" show="0" value="0" unmaskedvalue="01"/>
          <field name="ip.opt.type.class" showname=".00. .... = Class: Control (0)" size="1" pos="54" show="0" value="0" unmaskedvalue="01"/>
          <field name="ip.opt.type.number" showname="...0 0001 = Number: No-Operation (NOP) (1)" size="1" pos="54" show="1" value="1" unmaskedvalue="01"/>
        </field>
      </field>
      <field name="" show="No-Operation (NOP)" size="1" pos="55" value="01">
        <field name="ip.opt.type" showname="Type: 1" size="1" pos="55" show="1" value="01">
          <field name="ip.opt.type.copy" showname="0... .... = Copy on fragmentation: No" size="1" pos="55" show="0" value="0" unmaskedvalue="01"/>
          <field name="ip.opt.type.class" showname=".00. .... = Class: Control (0)" size="1" pos="55" show="0" value="0" unmaskedvalue="01"/>
          <field name="ip.opt.type.number" showname="...0 0001 = Number: No-Operation (NOP) (1)" size="1" pos="55" show="1" value="1" unmaskedvalue="01"/>
        </field>
      </field>
      <field name="" show="Timestamps: TSval 198122, TSecr 1293433420" size="10" pos="56" value="080a000305ea4d183a4c">
        <field name="tcp.option_kind" showname="Kind: Timestamp (8)" size="1" pos="56" show="8" value="08"/>
        <field name="tcp.option_len" showname="Length: 10" size="1" pos="57" show="10" value="0a"/>
        <field name="tcp.options.timestamp.tsval" showname="Timestamp value: 198122" size="4" pos="58" show="198122" value="000305ea"/>
        <field name="tcp.options.timestamp.tsecr" showname="Timestamp echo reply: 1293433420" size="4" pos="62" show="1293433420" value="4d183a4c"/>
      </field>
    </field>
    <field name="tcp.analysis" showname="SEQ/ACK analysis" size="0" pos="34" show="" value="">
      <field name="tcp.analysis.bytes_in_flight" showname="Bytes in flight: 16" size="0" pos="34" show="16"/>
    </field>
  </proto>
  <proto name="fake-field-wrapper">
    <field name="data" value="04000010000000000001000800000012">
      <field name="data.data" showname="Data: 04000010000000000001000800000012" size="16" pos="66" show="04:00:00:10:00:00:00:00:00:01:00:08:00:00:00:12" value="04000010000000000001000800000012"/>
      <field name="data.len" showname="Length: 16" size="0" pos="66" show="16"/>
  </field>
</proto>
</packet>

<packet>
  <proto name="geninfo" pos="0" showname="General information" size="74">
    <field name="num" pos="0" show="25" showname="Number" value="19" size="74"/>
    <field name="len" pos="0" show="74" showname="Frame Length" value="4a" size="74"/>
    <field name="caplen" pos="0" show="74" showname="Captured Length" value="4a" size="74"/>
    <field name="timestamp" pos="0" show="Feb  4, 2012 21:50:26.568494000 Pacific Standard Time" showname="Captured Time" value="1328421026.568494000" size="74"/>
  </proto>
  <proto name="frame" showname="Frame 25: 74 bytes on wire (592 bits), 74 bytes captured (592 bits)" size="74" pos="0">
    <field name="frame.encap_type" showname="Encapsulation type: Ethernet (1)" size="0" pos="0" show="1"/>
    <field name="frame.time" showname="Arrival Time: Feb  4, 2012 21:50:26.568494000 Pacific Standard Time" size="0" pos="0" show="Feb  4, 2012 21:50:26.568494000"/>
    <field name="frame.offset_shift" showname="Time shift for this packet: 0.000000000 seconds" size="0" pos="0" show="0.000000000"/>
    <field name="frame.time_epoch" showname="Epoch Time: 1328421026.568494000 seconds" size="0" pos="0" show="1328421026.568494000"/>
    <field name="frame.time_delta" showname="Time delta from previous captured frame: 0.000040000 seconds" size="0" pos="0" show="0.000040000"/>
    <field name="frame.time_delta_displayed" showname="Time delta from previous displayed frame: 0.196868000 seconds" size="0" pos="0" show="0.196868000"/>
    <field name="frame.time_relative" showname="Time since reference or first frame: 2.255911000 seconds" size="0" pos="0" show="2.255911000"/>
    <field name="frame.number" showname="Frame Number: 25" size="0" pos="0" show="25"/>
    <field name="frame.len" showname="Frame Length: 74 bytes (592 bits)" size="0" pos="0" show="74"/>
    <field name="frame.cap_len" showname="Capture Length: 74 bytes (592 bits)" size="0" pos="0" show="74"/>
    <field name="frame.marked" showname="Frame is marked: False" size="0" pos="0" show="0"/>
    <field name="frame.ignored" showname="Frame is ignored: False" size="0" pos="0" show="0"/>
    <field name="frame.protocols" showname="Protocols in frame: eth:ip:tcp:data" size="0" pos="0" show="eth:ip:tcp:data"/>
    <field name="frame.coloring_rule.name" showname="Coloring Rule Name: TCP" size="0" pos="0" show="TCP"/>
    <field name="frame.coloring_rule.string" showname="Coloring Rule String: tcp" size="0" pos="0" show="tcp"/>
  </proto>
  <proto name="eth" showname="Ethernet II, Src: Vmware_d3:f3:c8 (00:0c:29:d3:f3:c8), Dst: HpnSuppl_f3:48:00 (00:21:f7:f3:48:00)" size="14" pos="0">
    <field name="eth.dst" showname="Destination: HpnSuppl_f3:48:00 (00:21:f7:f3:48:00)" size="6" pos="0" show="00:21:f7:f3:48:00" value="0021f7f34800">
      <field name="eth.addr" showname="Address: HpnSuppl_f3:48:00 (00:21:f7:f3:48:00)" size="6" pos="0" show="00:21:f7:f3:48:00" value="0021f7f34800"/>
      <field name="eth.lg" showname=".... ..0. .... .... .... .... = LG bit: Globally unique address (factory default)" size="3" pos="0" show="0" value="0" unmaskedvalue="0021f7"/>
      <field name="eth.ig" showname=".... ...0 .... .... .... .... = IG bit: Individual address (unicast)" size="3" pos="0" show="0" value="0" unmaskedvalue="0021f7"/>
    </field>
    <field name="eth.src" showname="Source: Vmware_d3:f3:c8 (00:0c:29:d3:f3:c8)" size="6" pos="6" show="00:0c:29:d3:f3:c8" value="000c29d3f3c8">
      <field name="eth.addr" showname="Address: Vmware_d3:f3:c8 (00:0c:29:d3:f3:c8)" size="6" pos="6" show="00:0c:29:d3:f3:c8" value="000c29d3f3c8"/>
      <field name="eth.lg" showname=".... ..0. .... .... .... .... = LG bit: Globally unique address (factory default)" size="3" pos="6" show="0" value="0" unmaskedvalue="000c29"/>
      <field name="eth.ig" showname=".... ...0 .... .... .... .... = IG bit: Individual address (unicast)" size="3" pos="6" show="0" value="0" unmaskedvalue="000c29"/>
    </field>
    <field name="eth.type" showname="Type: IP (0x0800)" size="2" pos="12" show="0x0800" value="0800"/>
  </proto>
  <proto name="ip" showname="Internet Protocol Version 4, Src: 15.146.193.67 (15.146.193.67), Dst: 172.16.105.101 (172.16.105.101)" size="20" pos="14">
    <field name="ip.version" showname="Version: 4" size="1" pos="14" show="4" value="45"/>
    <field name="ip.hdr_len" showname="Header length: 20 bytes" size="1" pos="14" show="20" value="45"/>
    <field name="ip.dsfield" showname="Differentiated Services Field: 0x00 (DSCP 0x00: Default; ECN: 0x00: Not-ECT (Not ECN-Capable Transport))" size="1" pos="15" show="0" value="00">
      <field name="ip.dsfield.dscp" showname="0000 00.. = Differentiated Services Codepoint: Default (0x00)" size="1" pos="15" show="0x00" value="0" unmaskedvalue="00"/>
      <field name="ip.dsfield.ecn" showname=".... ..00 = Explicit Congestion Notification: Not-ECT (Not ECN-Capable Transport) (0x00)" size="1" pos="15" show="0x00" value="0" unmaskedvalue="00"/>
    </field>
    <field name="ip.len" showname="Total Length: 60" size="2" pos="16" show="60" value="003c"/>
    <field name="ip.id" showname="Identification: 0x6406 (25606)" size="2" pos="18" show="0x6406" value="6406"/>
    <field name="ip.flags" showname="Flags: 0x02 (Don&apos;t Fragment)" size="1" pos="20" show="0x02" value="40">
      <field name="ip.flags.rb" showname="0... .... = Reserved bit: Not set" size="1" pos="20" show="0" value="40"/>
      <field name="ip.flags.df" showname=".1.. .... = Don&apos;t fragment: Set" size="1" pos="20" show="1" value="40"/>
      <field name="ip.flags.mf" showname="..0. .... = More fragments: Not set" size="1" pos="20" show="0" value="40"/>
    </field>
    <field name="ip.frag_offset" showname="Fragment offset: 0" size="2" pos="20" show="0" value="4000"/>
    <field name="ip.ttl" showname="Time to live: 64" size="1" pos="22" show="64" value="40"/>
    <field name="ip.proto" showname="Protocol: TCP (6)" size="1" pos="23" show="6" value="06"/>
    <field name="ip.checksum" showname="Header checksum: 0xf06a [correct]" size="2" pos="24" show="0xf06a" value="f06a">
      <field name="ip.checksum_good" showname="Good: True" size="2" pos="24" show="1" value="f06a"/>
      <field name="ip.checksum_bad" showname="Bad: False" size="2" pos="24" show="0" value="f06a"/>
    </field>
    <field name="ip.src" showname="Source: 15.146.193.67 (15.146.193.67)" size="4" pos="26" show="15.146.193.67" value="0f92c143"/>
    <field name="ip.addr" showname="Source or Destination Address: 15.146.193.67 (15.146.193.67)" hide="yes" size="4" pos="26" show="15.146.193.67" value="0f92c143"/>
    <field name="ip.src_host" showname="Source Host: 15.146.193.67" hide="yes" size="4" pos="26" show="15.146.193.67" value="0f92c143"/>
    <field name="ip.host" showname="Source or Destination Host: 15.146.193.67" hide="yes" size="4" pos="26" show="15.146.193.67" value="0f92c143"/>
    <field name="ip.dst" showname="Destination: 172.16.105.101 (172.16.105.101)" size="4" pos="30" show="172.16.105.101" value="ac106965"/>
    <field name="ip.addr" showname="Source or Destination Address: 172.16.105.101 (172.16.105.101)" hide="yes" size="4" pos="30" show="172.16.105.101" value="ac106965"/>
    <field name="ip.dst_host" showname="Destination Host: 172.16.105.101" hide="yes" size="4" pos="30" show="172.16.105.101" value="ac106965"/>
    <field name="ip.host" showname="Source or Destination Host: 172.16.105.101" hide="yes" size="4" pos="30" show="172.16.105.101" value="ac106965"/>
    <field name="" show="Source GeoIP: Unknown" size="4" pos="26" value="0f92c143"/>
    <field name="" show="Destination GeoIP: Unknown" size="4" pos="30" value="ac106965"/>
  </proto>
  <proto name="tcp" showname="Transmission Control Protocol, Src Port: 6633 (6633), Dst Port: 50370 (50370), Seq: 17, Ack: 9, Len: 8" size="32" pos="34">
    <field name="tcp.srcport" showname="Source port: 6633 (6633)" size="2" pos="34" show="6633" value="19e9"/>
    <field name="tcp.dstport" showname="Destination port: 50370 (50370)" size="2" pos="36" show="50370" value="c4c2"/>
    <field name="tcp.port" showname="Source or Destination Port: 6633" hide="yes" size="2" pos="34" show="6633" value="19e9"/>
    <field name="tcp.port" showname="Source or Destination Port: 50370" hide="yes" size="2" pos="36" show="50370" value="c4c2"/>
    <field name="tcp.stream" showname="Stream index: 1" size="0" pos="34" show="1"/>
    <field name="tcp.len" showname="TCP Segment Len: 8" hide="yes" size="1" pos="46" show="8" value="80"/>
    <field name="tcp.seq" showname="Sequence number: 17    (relative sequence number)" size="4" pos="38" show="17" value="13b761fd"/>
    <field name="tcp.nxtseq" showname="Next sequence number: 25    (relative sequence number)" size="0" pos="34" show="25"/>
    <field name="tcp.ack" showname="Acknowledgment number: 9    (relative ack number)" size="4" pos="42" show="9" value="2b8ff5af"/>
    <field name="tcp.hdr_len" showname="Header length: 32 bytes" size="1" pos="46" show="32" value="80"/>
    <field name="tcp.flags" showname="Flags: 0x018 (PSH, ACK)" size="2" pos="46" show="0x0018" value="18" unmaskedvalue="8018">
      <field name="tcp.flags.res" showname="000. .... .... = Reserved: Not set" size="1" pos="46" show="0" value="0" unmaskedvalue="80"/>
      <field name="tcp.flags.ns" showname="...0 .... .... = Nonce: Not set" size="1" pos="46" show="0" value="0" unmaskedvalue="80"/>
      <field name="tcp.flags.cwr" showname=".... 0... .... = Congestion Window Reduced (CWR): Not set" size="1" pos="47" show="0" value="0" unmaskedvalue="18"/>
      <field name="tcp.flags.ecn" showname=".... .0.. .... = ECN-Echo: Not set" size="1" pos="47" show="0" value="0" unmaskedvalue="18"/>
      <field name="tcp.flags.urg" showname=".... ..0. .... = Urgent: Not set" size="1" pos="47" show="0" value="0" unmaskedvalue="18"/>
      <field name="tcp.flags.ack" showname=".... ...1 .... = Acknowledgment: Set" size="1" pos="47" show="1" value="1" unmaskedvalue="18"/>
      <field name="tcp.flags.push" showname=".... .... 1... = Push: Set" size="1" pos="47" show="1" value="1" unmaskedvalue="18"/>
      <field name="tcp.flags.reset" showname=".... .... .0.. = Reset: Not set" size="1" pos="47" show="0" value="0" unmaskedvalue="18"/>
      <field name="tcp.flags.syn" showname=".... .... ..0. = Syn: Not set" size="1" pos="47" show="0" value="0" unmaskedvalue="18"/>
      <field name="tcp.flags.fin" showname=".... .... ...0 = Fin: Not set" size="1" pos="47" show="0" value="0" unmaskedvalue="18"/>
    </field>
    <field name="tcp.window_size_value" showname="Window size value: 227" size="2" pos="48" show="227" value="00e3"/>
    <field name="tcp.window_size" showname="Calculated window size: 14528" size="2" pos="48" show="14528" value="00e3"/>
    <field name="tcp.window_size_scalefactor" showname="Window size scaling factor: 64" size="2" pos="48" show="64" value="00e3"/>
    <field name="tcp.checksum" showname="Checksum: 0xe679 [validation disabled]" size="2" pos="50" show="0xe679" value="e679">
      <field name="tcp.checksum_good" showname="Good Checksum: False" size="2" pos="50" show="0" value="e679"/>
      <field name="tcp.checksum_bad" showname="Bad Checksum: False" size="2" pos="50" show="0" value="e679"/>
    </field>
    <field name="tcp.options" showname="Options: (12 bytes), No-Operation (NOP), No-Operation (NOP), Timestamps" size="12" pos="54" show="01:01:08:0a:00:03:06:1b:4d:18:3b:14" value="0101080a0003061b4d183b14">
      <field name="" show="No-Operation (NOP)" size="1" pos="54" value="01">
        <field name="ip.opt.type" showname="Type: 1" size="1" pos="54" show="1" value="01">
          <field name="ip.opt.type.copy" showname="0... .... = Copy on fragmentation: No" size="1" pos="54" show="0" value="0" unmaskedvalue="01"/>
          <field name="ip.opt.type.class" showname=".00. .... = Class: Control (0)" size="1" pos="54" show="0" value="0" unmaskedvalue="01"/>
          <field name="ip.opt.type.number" showname="...0 0001 = Number: No-Operation (NOP) (1)" size="1" pos="54" show="1" value="1" unmaskedvalue="01"/>
        </field>
      </field>
      <field name="" show="No-Operation (NOP)" size="1" pos="55" value="01">
        <field name="ip.opt.type" showname="Type: 1" size="1" pos="55" show="1" value="01">
          <field name="ip.opt.type.copy" showname="0... .... = Copy on fragmentation: No" size="1" pos="55" show="0" value="0" unmaskedvalue="01"/>
          <field name="ip.opt.type.class" showname=".00. .... = Class: Control (0)" size="1" pos="55" show="0" value="0" unmaskedvalue="01"/>
          <field name="ip.opt.type.number" showname="...0 0001 = Number: No-Operation (NOP) (1)" size="1" pos="55" show="1" value="1" unmaskedvalue="01"/>
        </field>
      </field>
      <field name="" show="Timestamps: TSval 198171, TSecr 1293433620" size="10" pos="56" value="080a0003061b4d183b14">
        <field name="tcp.option_kind" showname="Kind: Timestamp (8)" size="1" pos="56" show="8" value="08"/>
        <field name="tcp.option_len" showname="Length: 10" size="1" pos="57" show="10" value="0a"/>
        <field name="tcp.options.timestamp.tsval" showname="Timestamp value: 198171" size="4" pos="58" show="198171" value="0003061b"/>
        <field name="tcp.options.timestamp.tsecr" showname="Timestamp echo reply: 1293433620" size="4" pos="62" show="1293433620" value="4d183b14"/>
      </field>
    </field>
    <field name="tcp.analysis" showname="SEQ/ACK analysis" size="0" pos="34" show="" value="">
      <field name="tcp.analysis.bytes_in_flight" showname="Bytes in flight: 8" size="0" pos="34" show="8"/>
    </field>
  </proto>
  <proto name="fake-field-wrapper">
    <field name="data" value="0405000800000433">
      <field name="data.data" showname="Data: 0405000800000433" size="8" pos="66" show="04:05:00:08:00:00:04:33" value="0405000800000433"/>
      <field name="data.len" showname="Length: 8" size="0" pos="66" show="8"/>
  </field>
</proto>
</packet>

<packet>
  <proto name="geninfo" pos="0" showname="General information" size="98">
    <field name="num" pos="0" show="26" showname="Number" value="1a" size="98"/>
    <field name="len" pos="0" show="98" showname="Frame Length" value="62" size="98"/>
    <field name="caplen" pos="0" show="98" showname="Captured Length" value="62" size="98"/>
    <field name="timestamp" pos="0" show="Feb  4, 2012 21:50:26.570288000 Pacific Standard Time" showname="Captured Time" value="1328421026.570288000" size="98"/>
  </proto>
  <proto name="frame" showname="Frame 26: 98 bytes on wire (784 bits), 98 bytes captured (784 bits)" size="98" pos="0">
    <field name="frame.encap_type" showname="Encapsulation type: Ethernet (1)" size="0" pos="0" show="1"/>
    <field name="frame.time" showname="Arrival Time: Feb  4, 2012 21:50:26.570288000 Pacific Standard Time" size="0" pos="0" show="Feb  4, 2012 21:50:26.570288000"/>
    <field name="frame.offset_shift" showname="Time shift for this packet: 0.000000000 seconds" size="0" pos="0" show="0.000000000"/>
    <field name="frame.time_epoch" showname="Epoch Time: 1328421026.570288000 seconds" size="0" pos="0" show="1328421026.570288000"/>
    <field name="frame.time_delta" showname="Time delta from previous captured frame: 0.001794000 seconds" size="0" pos="0" show="0.001794000"/>
    <field name="frame.time_delta_displayed" showname="Time delta from previous displayed frame: 0.001794000 seconds" size="0" pos="0" show="0.001794000"/>
    <field name="frame.time_relative" showname="Time since reference or first frame: 2.257705000 seconds" size="0" pos="0" show="2.257705000"/>
    <field name="frame.number" showname="Frame Number: 26" size="0" pos="0" show="26"/>
    <field name="frame.len" showname="Frame Length: 98 bytes (784 bits)" size="0" pos="0" show="98"/>
    <field name="frame.cap_len" showname="Capture Length: 98 bytes (784 bits)" size="0" pos="0" show="98"/>
    <field name="frame.marked" showname="Frame is marked: False" size="0" pos="0" show="0"/>
    <field name="frame.ignored" showname="Frame is ignored: False" size="0" pos="0" show="0"/>
    <field name="frame.protocols" showname="Protocols in frame: eth:ip:tcp:data" size="0" pos="0" show="eth:ip:tcp:data"/>
    <field name="frame.coloring_rule.name" showname="Coloring Rule Name: TCP" size="0" pos="0" show="TCP"/>
    <field name="frame.coloring_rule.string" showname="Coloring Rule String: tcp" size="0" pos="0" show="tcp"/>
  </proto>
  <proto name="eth" showname="Ethernet II, Src: HpnSuppl_f3:48:00 (00:21:f7:f3:48:00), Dst: Vmware_d3:f3:c8 (00:0c:29:d3:f3:c8)" size="14" pos="0">
    <field name="eth.dst" showname="Destination: Vmware_d3:f3:c8 (00:0c:29:d3:f3:c8)" size="6" pos="0" show="00:0c:29:d3:f3:c8" value="000c29d3f3c8">
      <field name="eth.addr" showname="Address: Vmware_d3:f3:c8 (00:0c:29:d3:f3:c8)" size="6" pos="0" show="00:0c:29:d3:f3:c8" value="000c29d3f3c8"/>
      <field name="eth.lg" showname=".... ..0. .... .... .... .... = LG bit: Globally unique address (factory default)" size="3" pos="0" show="0" value="0" unmaskedvalue="000c29"/>
      <field name="eth.ig" showname=".... ...0 .... .... .... .... = IG bit: Individual address (unicast)" size="3" pos="0" show="0" value="0" unmaskedvalue="000c29"/>
    </field>
    <field name="eth.src" showname="Source: HpnSuppl_f3:48:00 (00:21:f7:f3:48:00)" size="6" pos="6" show="00:21:f7:f3:48:00" value="0021f7f34800">
      <field name="eth.addr" showname="Address: HpnSuppl_f3:48:00 (00:21:f7:f3:48:00)" size="6" pos="6" show="00:21:f7:f3:48:00" value="0021f7f34800"/>
      <field name="eth.lg" showname=".... ..0. .... .... .... .... = LG bit: Globally unique address (factory default)" size="3" pos="6" show="0" value="0" unmaskedvalue="0021f7"/>
      <field name="eth.ig" showname=".... ...0 .... .... .... .... = IG bit: Individual address (unicast)" size="3" pos="6" show="0" value="0" unmaskedvalue="0021f7"/>
    </field>
    <field name="eth.type" showname="Type: IP (0x0800)" size="2" pos="12" show="0x0800" value="0800"/>
  </proto>
  <proto name="ip" showname="Internet Protocol Version 4, Src: 172.16.105.101 (172.16.105.101), Dst: 15.146.193.67 (15.146.193.67)" size="20" pos="14">
    <field name="ip.version" showname="Version: 4" size="1" pos="14" show="4" value="45"/>
    <field name="ip.hdr_len" showname="Header length: 20 bytes" size="1" pos="14" show="20" value="45"/>
    <field name="ip.dsfield" showname="Differentiated Services Field: 0x00 (DSCP 0x00: Default; ECN: 0x00: Not-ECT (Not ECN-Capable Transport))" size="1" pos="15" show="0" value="00">
      <field name="ip.dsfield.dscp" showname="0000 00.. = Differentiated Services Codepoint: Default (0x00)" size="1" pos="15" show="0x00" value="0" unmaskedvalue="00"/>
      <field name="ip.dsfield.ecn" showname=".... ..00 = Explicit Congestion Notification: Not-ECT (Not ECN-Capable Transport) (0x00)" size="1" pos="15" show="0x00" value="0" unmaskedvalue="00"/>
    </field>
    <field name="ip.len" showname="Total Length: 84" size="2" pos="16" show="84" value="0054"/>
    <field name="ip.id" showname="Identification: 0x7a7b (31355)" size="2" pos="18" show="0x7a7b" value="7a7b"/>
    <field name="ip.flags" showname="Flags: 0x02 (Don&apos;t Fragment)" size="1" pos="20" show="0x02" value="40">
      <field name="ip.flags.rb" showname="0... .... = Reserved bit: Not set" size="1" pos="20" show="0" value="40"/>
      <field name="ip.flags.df" showname=".1.. .... = Don&apos;t fragment: Set" size="1" pos="20" show="1" value="40"/>
      <field name="ip.flags.mf" showname="..0. .... = More fragments: Not set" size="1" pos="20" show="0" value="40"/>
    </field>
    <field name="ip.frag_offset" showname="Fragment offset: 0" size="2" pos="20" show="0" value="4000"/>
    <field name="ip.ttl" showname="Time to live: 61" size="1" pos="22" show="61" value="3d"/>
    <field name="ip.proto" showname="Protocol: TCP (6)" size="1" pos="23" show="6" value="06"/>
    <field name="ip.checksum" showname="Header checksum: 0xdcdd [correct]" size="2" pos="24" show="0xdcdd" value="dcdd">
      <field name="ip.checksum_good" showname="Good: True" size="2" pos="24" show="1" value="dcdd"/>
      <field name="ip.checksum_bad" showname="Bad: False" size="2" pos="24" show="0" value="dcdd"/>
    </field>
    <field name="ip.src" showname="Source: 172.16.105.101 (172.16.105.101)" size="4" pos="26" show="172.16.105.101" value="ac106965"/>
    <field name="ip.addr" showname="Source or Destination Address: 172.16.105.101 (172.16.105.101)" hide="yes" size="4" pos="26" show="172.16.105.101" value="ac106965"/>
    <field name="ip.src_host" showname="Source Host: 172.16.105.101" hide="yes" size="4" pos="26" show="172.16.105.101" value="ac106965"/>
    <field name="ip.host" showname="Source or Destination Host: 172.16.105.101" hide="yes" size="4" pos="26" show="172.16.105.101" value="ac106965"/>
    <field name="ip.dst" showname="Destination: 15.146.193.67 (15.146.193.67)" size="4" pos="30" show="15.146.193.67" value="0f92c143"/>
    <field name="ip.addr" showname="Source or Destination Address: 15.146.193.67 (15.146.193.67)" hide="yes" size="4" pos="30" show="15.146.193.67" value="0f92c143"/>
    <field name="ip.dst_host" showname="Destination Host: 15.146.193.67" hide="yes" size="4" pos="30" show="15.146.193.67" value="0f92c143"/>
    <field name="ip.host" showname="Source or Destination Host: 15.146.193.67" hide="yes" size="4" pos="30" show="15.146.193.67" value="0f92c143"/>
    <field name="" show="Source GeoIP: Unknown" size="4" pos="26" value="ac106965"/>
    <field name="" show="Destination GeoIP: Unknown" size="4" pos="30" value="0f92c143"/>
  </proto>
  <proto name="tcp" showname="Transmission Control Protocol, Src Port: 50370 (50370), Dst Port: 6633 (6633), Seq: 9, Ack: 25, Len: 32" size="32" pos="34">
    <field name="tcp.srcport" showname="Source port: 50370 (50370)" size="2" pos="34" show="50370" value="c4c2"/>
    <field name="tcp.dstport" showname="Destination port: 6633 (6633)" size="2" pos="36" show="6633" value="19e9"/>
    <field name="tcp.port" showname="Source or Destination Port: 50370" hide="yes" size="2" pos="34" show="50370" value="c4c2"/>
    <field name="tcp.port" showname="Source or Destination Port: 6633" hide="yes" size="2" pos="36" show="6633" value="19e9"/>
    <field name="tcp.stream" showname="Stream index: 1" size="0" pos="34" show="1"/>
    <field name="tcp.len" showname="TCP Segment Len: 32" hide="yes" size="1" pos="46" show="32" value="80"/>
    <field name="tcp.seq" showname="Sequence number: 9    (relative sequence number)" size="4" pos="38" show="9" value="2b8ff5af"/>
    <field name="tcp.nxtseq" showname="Next sequence number: 41    (relative sequence number)" size="0" pos="34" show="41"/>
    <field name="tcp.ack" showname="Acknowledgment number: 25    (relative ack number)" size="4" pos="42" show="25" value="13b76205"/>
    <field name="tcp.hdr_len" showname="Header length: 32 bytes" size="1" pos="46" show="32" value="80"/>
    <field name="tcp.flags" showname="Flags: 0x018 (PSH, ACK)" size="2" pos="46" show="0x0018" value="18" unmaskedvalue="8018">
      <field name="tcp.flags.res" showname="000. .... .... = Reserved: Not set" size="1" pos="46" show="0" value="0" unmaskedvalue="80"/>
      <field name="tcp.flags.ns" showname="...0 .... .... = Nonce: Not set" size="1" pos="46" show="0" value="0" unmaskedvalue="80"/>
      <field name="tcp.flags.cwr" showname=".... 0... .... = Congestion Window Reduced (CWR): Not set" size="1" pos="47" show="0" value="0" unmaskedvalue="18"/>
      <field name="tcp.flags.ecn" showname=".... .0.. .... = ECN-Echo: Not set" size="1" pos="47" show="0" value="0" unmaskedvalue="18"/>
      <field name="tcp.flags.urg" showname=".... ..0. .... = Urgent: Not set" size="1" pos="47" show="0" value="0" unmaskedvalue="18"/>
      <field name="tcp.flags.ack" showname=".... ...1 .... = Acknowledgment: Set" size="1" pos="47" show="1" value="1" unmaskedvalue="18"/>
      <field name="tcp.flags.push" showname=".... .... 1... = Push: Set" size="1" pos="47" show="1" value="1" unmaskedvalue="18"/>
      <field name="tcp.flags.reset" showname=".... .... .0.. = Reset: Not set" size="1" pos="47" show="0" value="0" unmaskedvalue="18"/>
      <field name="tcp.flags.syn" showname=".... .... ..0. = Syn: Not set" size="1" pos="47" show="0" value="0" unmaskedvalue="18"/>
      <field name="tcp.flags.fin" showname=".... .... ...0 = Fin: Not set" size="1" pos="47" show="0" value="0" unmaskedvalue="18"/>
    </field>
    <field name="tcp.window_size_value" showname="Window size value: 33292" size="2" pos="48" show="33292" value="820c"/>
    <field name="tcp.window_size" showname="Calculated window size: 66584" size="2" pos="48" show="66584" value="820c"/>
    <field name="tcp.window_size_scalefactor" showname="Window size scaling factor: 2" size="2" pos="48" show="2" value="820c"/>
    <field name="tcp.checksum" showname="Checksum: 0x7f9e [validation disabled]" size="2" pos="50" show="0x7f9e" value="7f9e">
      <field name="tcp.checksum_good" showname="Good Checksum: False" size="2" pos="50" show="0" value="7f9e"/>
      <field name="tcp.checksum_bad" showname="Bad Checksum: False" size="2" pos="50" show="0" value="7f9e"/>
    </field>
    <field name="tcp.options" showname="Options: (12 bytes), No-Operation (NOP), No-Operation (NOP), Timestamps" size="12" pos="54" show="01:01:08:0a:4d:18:3b:14:00:03:06:1b" value="0101080a4d183b140003061b">
      <field name="" show="No-Operation (NOP)" size="1" pos="54" value="01">
        <field name="ip.opt.type" showname="Type: 1" size="1" pos="54" show="1" value="01">
          <field name="ip.opt.type.copy" showname="0... .... = Copy on fragmentation: No" size="1" pos="54" show="0" value="0" unmaskedvalue="01"/>
          <field name="ip.opt.type.class" showname=".00. .... = Class: Control (0)" size="1" pos="54" show="0" value="0" unmaskedvalue="01"/>
          <field name="ip.opt.type.number" showname="...0 0001 = Number: No-Operation (NOP) (1)" size="1" pos="54" show="1" value="1" unmaskedvalue="01"/>
        </field>
      </field>
      <field name="" show="No-Operation (NOP)" size="1" pos="55" value="01">
        <field name="ip.opt.type" showname="Type: 1" size="1" pos="55" show="1" value="01">
          <field name="ip.opt.type.copy" showname="0... .... = Copy on fragmentation: No" size="1" pos="55" show="0" value="0" unmaskedvalue="01"/>
          <field name="ip.opt.type.class" showname=".00. .... = Class: Control (0)" size="1" pos="55" show="0" value="0" unmaskedvalue="01"/>
          <field name="ip.opt.type.number" showname="...0 0001 = Number: No-Operation (NOP) (1)" size="1" pos="55" show="1" value="1" unmaskedvalue="01"/>
        </field>
      </field>
      <field name="" show="Timestamps: TSval 1293433620, TSecr 198171" size="10" pos="56" value="080a4d183b140003061b">
        <field name="tcp.option_kind" showname="Kind: Timestamp (8)" size="1" pos="56" show="8" value="08"/>
        <field name="tcp.option_len" showname="Length: 10" size="1" pos="57" show="10" value="0a"/>
        <field name="tcp.options.timestamp.tsval" showname="Timestamp value: 1293433620" size="4" pos="58" show="1293433620" value="4d183b14"/>
        <field name="tcp.options.timestamp.tsecr" showname="Timestamp echo reply: 198171" size="4" pos="62" show="198171" value="0003061b"/>
      </field>
    </field>
    <field name="tcp.analysis" showname="SEQ/ACK analysis" size="0" pos="34" show="" value="">
      <field name="tcp.analysis.acks_frame" showname="This is an ACK to the segment in frame: 25" size="0" pos="34" show="25"/>
      <field name="tcp.analysis.ack_rtt" showname="The RTT to ACK the segment was: 0.001794000 seconds" size="0" pos="34" show="0.001794000"/>
      <field name="tcp.analysis.bytes_in_flight" showname="Bytes in flight: 32" size="0" pos="34" show="32"/>
    </field>
  </proto>
  <proto name="fake-field-wrapper">
    <field name="data" value="040600200000043300080021f71a870000000000030100000000010f00000000">
      <field name="data.data" showname="Data: 040600200000043300080021f71a87000000000003010000..." size="32" pos="66" show="04:06:00:20:00:00:04:33:00:08:00:21:f7:1a:87:00:00:00:00:00:03:01:00:00:00:00:01:0f:00:00:00:00" value="040600200000043300080021f71a870000000000030100000000010f00000000"/>
      <field name="data.len" showname="Length: 32" size="0" pos="66" show="32"/>
  </field>
</proto>
</packet>

<packet>
  <proto name="geninfo" pos="0" showname="General information" size="172">
    <field name="num" pos="0" show="28" showname="Number" value="1c" size="172"/>
    <field name="len" pos="0" show="172" showname="Frame Length" value="ac" size="172"/>
    <field name="caplen" pos="0" show="172" showname="Captured Length" value="ac" size="172"/>
    <field name="timestamp" pos="0" show="Feb  4, 2012 21:50:27.383112000 Pacific Standard Time" showname="Captured Time" value="1328421027.383112000" size="172"/>
  </proto>
  <proto name="frame" showname="Frame 28: 172 bytes on wire (1376 bits), 172 bytes captured (1376 bits)" size="172" pos="0">
    <field name="frame.encap_type" showname="Encapsulation type: Ethernet (1)" size="0" pos="0" show="1"/>
    <field name="frame.time" showname="Arrival Time: Feb  4, 2012 21:50:27.383112000 Pacific Standard Time" size="0" pos="0" show="Feb  4, 2012 21:50:27.383112000"/>
    <field name="frame.offset_shift" showname="Time shift for this packet: 0.000000000 seconds" size="0" pos="0" show="0.000000000"/>
    <field name="frame.time_epoch" showname="Epoch Time: 1328421027.383112000 seconds" size="0" pos="0" show="1328421027.383112000"/>
    <field name="frame.time_delta" showname="Time delta from previous captured frame: 0.776086000 seconds" size="0" pos="0" show="0.776086000"/>
    <field name="frame.time_delta_displayed" showname="Time delta from previous displayed frame: 0.812824000 seconds" size="0" pos="0" show="0.812824000"/>
    <field name="frame.time_relative" showname="Time since reference or first frame: 3.070529000 seconds" size="0" pos="0" show="3.070529000"/>
    <field name="frame.number" showname="Frame Number: 28" size="0" pos="0" show="28"/>
    <field name="frame.len" showname="Frame Length: 172 bytes (1376 bits)" size="0" pos="0" show="172"/>
    <field name="frame.cap_len" showname="Capture Length: 172 bytes (1376 bits)" size="0" pos="0" show="172"/>
    <field name="frame.marked" showname="Frame is marked: False" size="0" pos="0" show="0"/>
    <field name="frame.ignored" showname="Frame is ignored: False" size="0" pos="0" show="0"/>
    <field name="frame.protocols" showname="Protocols in frame: eth:ip:tcp:data" size="0" pos="0" show="eth:ip:tcp:data"/>
    <field name="frame.coloring_rule.name" showname="Coloring Rule Name: TCP" size="0" pos="0" show="TCP"/>
    <field name="frame.coloring_rule.string" showname="Coloring Rule String: tcp" size="0" pos="0" show="tcp"/>
  </proto>
  <proto name="eth" showname="Ethernet II, Src: Vmware_d3:f3:c8 (00:0c:29:d3:f3:c8), Dst: HpnSuppl_f3:48:00 (00:21:f7:f3:48:00)" size="14" pos="0">
    <field name="eth.dst" showname="Destination: HpnSuppl_f3:48:00 (00:21:f7:f3:48:00)" size="6" pos="0" show="00:21:f7:f3:48:00" value="0021f7f34800">
      <field name="eth.addr" showname="Address: HpnSuppl_f3:48:00 (00:21:f7:f3:48:00)" size="6" pos="0" show="00:21:f7:f3:48:00" value="0021f7f34800"/>
      <field name="eth.lg" showname=".... ..0. .... .... .... .... = LG bit: Globally unique address (factory default)" size="3" pos="0" show="0" value="0" unmaskedvalue="0021f7"/>
      <field name="eth.ig" showname=".... ...0 .... .... .... .... = IG bit: Individual address (unicast)" size="3" pos="0" show="0" value="0" unmaskedvalue="0021f7"/>
    </field>
    <field name="eth.src" showname="Source: Vmware_d3:f3:c8 (00:0c:29:d3:f3:c8)" size="6" pos="6" show="00:0c:29:d3:f3:c8" value="000c29d3f3c8">
      <field name="eth.addr" showname="Address: Vmware_d3:f3:c8 (00:0c:29:d3:f3:c8)" size="6" pos="6" show="00:0c:29:d3:f3:c8" value="000c29d3f3c8"/>
      <field name="eth.lg" showname=".... ..0. .... .... .... .... = LG bit: Globally unique address (factory default)" size="3" pos="6" show="0" value="0" unmaskedvalue="000c29"/>
      <field name="eth.ig" showname=".... ...0 .... .... .... .... = IG bit: Individual address (unicast)" size="3" pos="6" show="0" value="0" unmaskedvalue="000c29"/>
    </field>
    <field name="eth.type" showname="Type: IP (0x0800)" size="2" pos="12" show="0x0800" value="0800"/>
  </proto>
  <proto name="ip" showname="Internet Protocol Version 4, Src: 15.146.193.67 (15.146.193.67), Dst: 172.16.105.101 (172.16.105.101)" size="20" pos="14">
    <field name="ip.version" showname="Version: 4" size="1" pos="14" show="4" value="45"/>
    <field name="ip.hdr_len" showname="Header length: 20 bytes" size="1" pos="14" show="20" value="45"/>
    <field name="ip.dsfield" showname="Differentiated Services Field: 0x00 (DSCP 0x00: Default; ECN: 0x00: Not-ECT (Not ECN-Capable Transport))" size="1" pos="15" show="0" value="00">
      <field name="ip.dsfield.dscp" showname="0000 00.. = Differentiated Services Codepoint: Default (0x00)" size="1" pos="15" show="0x00" value="0" unmaskedvalue="00"/>
      <field name="ip.dsfield.ecn" showname=".... ..00 = Explicit Congestion Notification: Not-ECT (Not ECN-Capable Transport) (0x00)" size="1" pos="15" show="0x00" value="0" unmaskedvalue="00"/>
    </field>
    <field name="ip.len" showname="Total Length: 158" size="2" pos="16" show="158" value="009e"/>
    <field name="ip.id" showname="Identification: 0xe13e (57662)" size="2" pos="18" show="0xe13e" value="e13e"/>
    <field name="ip.flags" showname="Flags: 0x02 (Don&apos;t Fragment)" size="1" pos="20" show="0x02" value="40">
      <field name="ip.flags.rb" showname="0... .... = Reserved bit: Not set" size="1" pos="20" show="0" value="40"/>
      <field name="ip.flags.df" showname=".1.. .... = Don&apos;t fragment: Set" size="1" pos="20" show="1" value="40"/>
      <field name="ip.flags.mf" showname="..0. .... = More fragments: Not set" size="1" pos="20" show="0" value="40"/>
    </field>
    <field name="ip.frag_offset" showname="Fragment offset: 0" size="2" pos="20" show="0" value="4000"/>
    <field name="ip.ttl" showname="Time to live: 64" size="1" pos="22" show="64" value="40"/>
    <field name="ip.proto" showname="Protocol: TCP (6)" size="1" pos="23" show="6" value="06"/>
    <field name="ip.checksum" showname="Header checksum: 0x72d0 [correct]" size="2" pos="24" show="0x72d0" value="72d0">
      <field name="ip.checksum_good" showname="Good: True" size="2" pos="24" show="1" value="72d0"/>
      <field name="ip.checksum_bad" showname="Bad: False" size="2" pos="24" show="0" value="72d0"/>
    </field>
    <field name="ip.src" showname="Source: 15.146.193.67 (15.146.193.67)" size="4" pos="26" show="15.146.193.67" value="0f92c143"/>
    <field name="ip.addr" showname="Source or Destination Address: 15.146.193.67 (15.146.193.67)" hide="yes" size="4" pos="26" show="15.146.193.67" value="0f92c143"/>
    <field name="ip.src_host" showname="Source Host: 15.146.193.67" hide="yes" size="4" pos="26" show="15.146.193.67" value="0f92c143"/>
    <field name="ip.host" showname="Source or Destination Host: 15.146.193.67" hide="yes" size="4" pos="26" show="15.146.193.67" value="0f92c143"/>
    <field name="ip.dst" showname="Destination: 172.16.105.101 (172.16.105.101)" size="4" pos="30" show="172.16.105.101" value="ac106965"/>
    <field name="ip.addr" showname="Source or Destination Address: 172.16.105.101 (172.16.105.101)" hide="yes" size="4" pos="30" show="172.16.105.101" value="ac106965"/>
    <field name="ip.dst_host" showname="Destination Host: 172.16.105.101" hide="yes" size="4" pos="30" show="172.16.105.101" value="ac106965"/>
    <field name="ip.host" showname="Source or Destination Host: 172.16.105.101" hide="yes" size="4" pos="30" show="172.16.105.101" value="ac106965"/>
    <field name="" show="Source GeoIP: Unknown" size="4" pos="26" value="0f92c143"/>
    <field name="" show="Destination GeoIP: Unknown" size="4" pos="30" value="ac106965"/>
  </proto>
  <proto name="tcp" showname="Transmission Control Protocol, Src Port: 6633 (6633), Dst Port: 56548 (56548), Seq: 69, Ack: 1889, Len: 106" size="32" pos="34">
    <field name="tcp.srcport" showname="Source port: 6633 (6633)" size="2" pos="34" show="6633" value="19e9"/>
    <field name="tcp.dstport" showname="Destination port: 56548 (56548)" size="2" pos="36" show="56548" value="dce4"/>
    <field name="tcp.port" showname="Source or Destination Port: 6633" hide="yes" size="2" pos="34" show="6633" value="19e9"/>
    <field name="tcp.port" showname="Source or Destination Port: 56548" hide="yes" size="2" pos="36" show="56548" value="dce4"/>
    <field name="tcp.stream" showname="Stream index: 0" size="0" pos="34" show="0"/>
    <field name="tcp.len" showname="TCP Segment Len: 106" hide="yes" size="1" pos="46" show="106" value="80"/>
    <field name="tcp.seq" showname="Sequence number: 69    (relative sequence number)" size="4" pos="38" show="69" value="9d90e316"/>
    <field name="tcp.nxtseq" showname="Next sequence number: 175    (relative sequence number)" size="0" pos="34" show="175"/>
    <field name="tcp.ack" showname="Acknowledgment number: 1889    (relative ack number)" size="4" pos="42" show="1889" value="2b87a68f"/>
    <field name="tcp.hdr_len" showname="Header length: 32 bytes" size="1" pos="46" show="32" value="80"/>
    <field name="tcp.flags" showname="Flags: 0x018 (PSH, ACK)" size="2" pos="46" show="0x0018" value="18" unmaskedvalue="8018">
      <field name="tcp.flags.res" showname="000. .... .... = Reserved: Not set" size="1" pos="46" show="0" value="0" unmaskedvalue="80"/>
      <field name="tcp.flags.ns" showname="...0 .... .... = Nonce: Not set" size="1" pos="46" show="0" value="0" unmaskedvalue="80"/>
      <field name="tcp.flags.cwr" showname=".... 0... .... = Congestion Window Reduced (CWR): Not set" size="1" pos="47" show="0" value="0" unmaskedvalue="18"/>
      <field name="tcp.flags.ecn" showname=".... .0.. .... = ECN-Echo: Not set" size="1" pos="47" show="0" value="0" unmaskedvalue="18"/>
      <field name="tcp.flags.urg" showname=".... ..0. .... = Urgent: Not set" size="1" pos="47" show="0" value="0" unmaskedvalue="18"/>
      <field name="tcp.flags.ack" showname=".... ...1 .... = Acknowledgment: Set" size="1" pos="47" show="1" value="1" unmaskedvalue="18"/>
      <field name="tcp.flags.push" showname=".... .... 1... = Push: Set" size="1" pos="47" show="1" value="1" unmaskedvalue="18"/>
      <field name="tcp.flags.reset" showname=".... .... .0.. = Reset: Not set" size="1" pos="47" show="0" value="0" unmaskedvalue="18"/>
      <field name="tcp.flags.syn" showname=".... .... ..0. = Syn: Not set" size="1" pos="47" show="0" value="0" unmaskedvalue="18"/>
      <field name="tcp.flags.fin" showname=".... .... ...0 = Fin: Not set" size="1" pos="47" show="0" value="0" unmaskedvalue="18"/>
    </field>
    <field name="tcp.window_size_value" showname="Window size value: 290" size="2" pos="48" show="290" value="0122"/>
    <field name="tcp.window_size" showname="Calculated window size: 18560" size="2" pos="48" show="18560" value="0122"/>
    <field name="tcp.window_size_scalefactor" showname="Window size scaling factor: 64" size="2" pos="48" show="64" value="0122"/>
    <field name="tcp.checksum" showname="Checksum: 0xe6db [validation disabled]" size="2" pos="50" show="0xe6db" value="e6db">
      <field name="tcp.checksum_good" showname="Good Checksum: False" size="2" pos="50" show="0" value="e6db"/>
      <field name="tcp.checksum_bad" showname="Bad Checksum: False" size="2" pos="50" show="0" value="e6db"/>
    </field>
    <field name="tcp.options" showname="Options: (12 bytes), No-Operation (NOP), No-Operation (NOP), Timestamps" size="12" pos="54" show="01:01:08:0a:00:03:06:e7:4d:18:3a:24" value="0101080a000306e74d183a24">
      <field name="" show="No-Operation (NOP)" size="1" pos="54" value="01">
        <field name="ip.opt.type" showname="Type: 1" size="1" pos="54" show="1" value="01">
          <field name="ip.opt.type.copy" showname="0... .... = Copy on fragmentation: No" size="1" pos="54" show="0" value="0" unmaskedvalue="01"/>
          <field name="ip.opt.type.class" showname=".00. .... = Class: Control (0)" size="1" pos="54" show="0" value="0" unmaskedvalue="01"/>
          <field name="ip.opt.type.number" showname="...0 0001 = Number: No-Operation (NOP) (1)" size="1" pos="54" show="1" value="1" unmaskedvalue="01"/>
        </field>
      </field>
      <field name="" show="No-Operation (NOP)" size="1" pos="55" value="01">
        <field name="ip.opt.type" showname="Type: 1" size="1" pos="55" show="1" value="01">
          <field name="ip.opt.type.copy" showname="0... .... = Copy on fragmentation: No" size="1" pos="55" show="0" value="0" unmaskedvalue="01"/>
          <field name="ip.opt.type.class" showname=".00. .... = Class: Control (0)" size="1" pos="55" show="0" value="0" unmaskedvalue="01"/>
          <field name="ip.opt.type.number" showname="...0 0001 = Number: No-Operation (NOP) (1)" size="1" pos="55" show="1" value="1" unmaskedvalue="01"/>
        </field>
      </field>
      <field name="" show="Timestamps: TSval 198375, TSecr 1293433380" size="10" pos="56" value="080a000306e74d183a24">
        <field name="tcp.option_kind" showname="Kind: Timestamp (8)" size="1" pos="56" show="8" value="08"/>
        <field name="tcp.option_len" showname="Length: 10" size="1" pos="57" show="10" value="0a"/>
        <field name="tcp.options.timestamp.tsval" showname="Timestamp value: 198375" size="4" pos="58" show="198375" value="000306e7"/>
        <field name="tcp.options.timestamp.tsecr" showname="Timestamp echo reply: 1293433380" size="4" pos="62" show="1293433380" value="4d183a24"/>
      </field>
    </field>
    <field name="tcp.analysis" showname="SEQ/ACK analysis" size="0" pos="34" show="" value="">
      <field name="tcp.analysis.bytes_in_flight" showname="Bytes in flight: 106" size="0" pos="34" show="106"/>
    </field>
  </proto>
  <proto name="fake-field-wrapper">
    <field name="data" value="040d006a00000438fffffffffffffffd00100000000000000000001000000005ffff0000000000000180c200000e0021f71a870088cc0207040021f71a8700040407307835060200780c0f353639373539393138333431303338fe0c0026e10000080021f71a87000000">
      <field name="data.data" showname="Data: 040d006a00000438fffffffffffffffd0010000000000000..." size="106" pos="66" show="04:0d:00:6a:00:00:04:38:ff:ff:ff:ff:ff:ff:ff:fd:00:10:00:00:00:00:00:00:00:00:00:10:00:00:00:05:ff:ff:00:00:00:00:00:00:01:80:c2:00:00:0e:00:21:f7:1a:87:00:88:cc:02:07:04:00:21:f7:1a:87:00:04:04:07:30:78:35:06:02:00:78:0c:0f:35:36:39:37:35:39:39:31:38:33:34:31:30:33:38:fe:0c:00:26:e1:00:00:08:00:21:f7:1a:87:00:00:00" value="040d006a00000438fffffffffffffffd00100000000000000000001000000005ffff0000000000000180c200000e0021f71a870088cc0207040021f71a8700040407307835060200780c0f353639373539393138333431303338fe0c0026e10000080021f71a87000000"/>
      <field name="data.len" showname="Length: 106" size="0" pos="66" show="106"/>
  </field>
</proto>
</packet>

<packet>
  <proto name="geninfo" pos="0" showname="General information" size="384">
    <field name="num" pos="0" show="30" showname="Number" value="1e" size="384"/>
    <field name="len" pos="0" show="384" showname="Frame Length" value="180" size="384"/>
    <field name="caplen" pos="0" show="384" showname="Captured Length" value="180" size="384"/>
    <field name="timestamp" pos="0" show="Feb  4, 2012 21:50:27.578444000 Pacific Standard Time" showname="Captured Time" value="1328421027.578444000" size="384"/>
  </proto>
  <proto name="frame" showname="Frame 30: 384 bytes on wire (3072 bits), 384 bytes captured (3072 bits)" size="384" pos="0">
    <field name="frame.encap_type" showname="Encapsulation type: Ethernet (1)" size="0" pos="0" show="1"/>
    <field name="frame.time" showname="Arrival Time: Feb  4, 2012 21:50:27.578444000 Pacific Standard Time" size="0" pos="0" show="Feb  4, 2012 21:50:27.578444000"/>
    <field name="frame.offset_shift" showname="Time shift for this packet: 0.000000000 seconds" size="0" pos="0" show="0.000000000"/>
    <field name="frame.time_epoch" showname="Epoch Time: 1328421027.578444000 seconds" size="0" pos="0" show="1328421027.578444000"/>
    <field name="frame.time_delta" showname="Time delta from previous captured frame: 0.000009000 seconds" size="0" pos="0" show="0.000009000"/>
    <field name="frame.time_delta_displayed" showname="Time delta from previous displayed frame: 0.195332000 seconds" size="0" pos="0" show="0.195332000"/>
    <field name="frame.time_relative" showname="Time since reference or first frame: 3.265861000 seconds" size="0" pos="0" show="3.265861000"/>
    <field name="frame.number" showname="Frame Number: 30" size="0" pos="0" show="30"/>
    <field name="frame.len" showname="Frame Length: 384 bytes (3072 bits)" size="0" pos="0" show="384"/>
    <field name="frame.cap_len" showname="Capture Length: 384 bytes (3072 bits)" size="0" pos="0" show="384"/>
    <field name="frame.marked" showname="Frame is marked: False" size="0" pos="0" show="0"/>
    <field name="frame.ignored" showname="Frame is ignored: False" size="0" pos="0" show="0"/>
    <field name="frame.protocols" showname="Protocols in frame: eth:ip:tcp:data" size="0" pos="0" show="eth:ip:tcp:data"/>
    <field name="frame.coloring_rule.name" showname="Coloring Rule Name: TCP" size="0" pos="0" show="TCP"/>
    <field name="frame.coloring_rule.string" showname="Coloring Rule String: tcp" size="0" pos="0" show="tcp"/>
  </proto>
  <proto name="eth" showname="Ethernet II, Src: Vmware_d3:f3:c8 (00:0c:29:d3:f3:c8), Dst: HpnSuppl_f3:48:00 (00:21:f7:f3:48:00)" size="14" pos="0">
    <field name="eth.dst" showname="Destination: HpnSuppl_f3:48:00 (00:21:f7:f3:48:00)" size="6" pos="0" show="00:21:f7:f3:48:00" value="0021f7f34800">
      <field name="eth.addr" showname="Address: HpnSuppl_f3:48:00 (00:21:f7:f3:48:00)" size="6" pos="0" show="00:21:f7:f3:48:00" value="0021f7f34800"/>
      <field name="eth.lg" showname=".... ..0. .... .... .... .... = LG bit: Globally unique address (factory default)" size="3" pos="0" show="0" value="0" unmaskedvalue="0021f7"/>
      <field name="eth.ig" showname=".... ...0 .... .... .... .... = IG bit: Individual address (unicast)" size="3" pos="0" show="0" value="0" unmaskedvalue="0021f7"/>
    </field>
    <field name="eth.src" showname="Source: Vmware_d3:f3:c8 (00:0c:29:d3:f3:c8)" size="6" pos="6" show="00:0c:29:d3:f3:c8" value="000c29d3f3c8">
      <field name="eth.addr" showname="Address: Vmware_d3:f3:c8 (00:0c:29:d3:f3:c8)" size="6" pos="6" show="00:0c:29:d3:f3:c8" value="000c29d3f3c8"/>
      <field name="eth.lg" showname=".... ..0. .... .... .... .... = LG bit: Globally unique address (factory default)" size="3" pos="6" show="0" value="0" unmaskedvalue="000c29"/>
      <field name="eth.ig" showname=".... ...0 .... .... .... .... = IG bit: Individual address (unicast)" size="3" pos="6" show="0" value="0" unmaskedvalue="000c29"/>
    </field>
    <field name="eth.type" showname="Type: IP (0x0800)" size="2" pos="12" show="0x0800" value="0800"/>
  </proto>
  <proto name="ip" showname="Internet Protocol Version 4, Src: 15.146.193.67 (15.146.193.67), Dst: 172.16.105.101 (172.16.105.101)" size="20" pos="14">
    <field name="ip.version" showname="Version: 4" size="1" pos="14" show="4" value="45"/>
    <field name="ip.hdr_len" showname="Header length: 20 bytes" size="1" pos="14" show="20" value="45"/>
    <field name="ip.dsfield" showname="Differentiated Services Field: 0x00 (DSCP 0x00: Default; ECN: 0x00: Not-ECT (Not ECN-Capable Transport))" size="1" pos="15" show="0" value="00">
      <field name="ip.dsfield.dscp" showname="0000 00.. = Differentiated Services Codepoint: Default (0x00)" size="1" pos="15" show="0x00" value="0" unmaskedvalue="00"/>
      <field name="ip.dsfield.ecn" showname=".... ..00 = Explicit Congestion Notification: Not-ECT (Not ECN-Capable Transport) (0x00)" size="1" pos="15" show="0x00" value="0" unmaskedvalue="00"/>
    </field>
    <field name="ip.len" showname="Total Length: 370" size="2" pos="16" show="370" value="0172"/>
    <field name="ip.id" showname="Identification: 0xe13f (57663)" size="2" pos="18" show="0xe13f" value="e13f"/>
    <field name="ip.flags" showname="Flags: 0x02 (Don&apos;t Fragment)" size="1" pos="20" show="0x02" value="40">
      <field name="ip.flags.rb" showname="0... .... = Reserved bit: Not set" size="1" pos="20" show="0" value="40"/>
      <field name="ip.flags.df" showname=".1.. .... = Don&apos;t fragment: Set" size="1" pos="20" show="1" value="40"/>
      <field name="ip.flags.mf" showname="..0. .... = More fragments: Not set" size="1" pos="20" show="0" value="40"/>
    </field>
    <field name="ip.frag_offset" showname="Fragment offset: 0" size="2" pos="20" show="0" value="4000"/>
    <field name="ip.ttl" showname="Time to live: 64" size="1" pos="22" show="64" value="40"/>
    <field name="ip.proto" showname="Protocol: TCP (6)" size="1" pos="23" show="6" value="06"/>
    <field name="ip.checksum" showname="Header checksum: 0x71fb [correct]" size="2" pos="24" show="0x71fb" value="71fb">
      <field name="ip.checksum_good" showname="Good: True" size="2" pos="24" show="1" value="71fb"/>
      <field name="ip.checksum_bad" showname="Bad: False" size="2" pos="24" show="0" value="71fb"/>
    </field>
    <field name="ip.src" showname="Source: 15.146.193.67 (15.146.193.67)" size="4" pos="26" show="15.146.193.67" value="0f92c143"/>
    <field name="ip.addr" showname="Source or Destination Address: 15.146.193.67 (15.146.193.67)" hide="yes" size="4" pos="26" show="15.146.193.67" value="0f92c143"/>
    <field name="ip.src_host" showname="Source Host: 15.146.193.67" hide="yes" size="4" pos="26" show="15.146.193.67" value="0f92c143"/>
    <field name="ip.host" showname="Source or Destination Host: 15.146.193.67" hide="yes" size="4" pos="26" show="15.146.193.67" value="0f92c143"/>
    <field name="ip.dst" showname="Destination: 172.16.105.101 (172.16.105.101)" size="4" pos="30" show="172.16.105.101" value="ac106965"/>
    <field name="ip.addr" showname="Source or Destination Address: 172.16.105.101 (172.16.105.101)" hide="yes" size="4" pos="30" show="172.16.105.101" value="ac106965"/>
    <field name="ip.dst_host" showname="Destination Host: 172.16.105.101" hide="yes" size="4" pos="30" show="172.16.105.101" value="ac106965"/>
    <field name="ip.host" showname="Source or Destination Host: 172.16.105.101" hide="yes" size="4" pos="30" show="172.16.105.101" value="ac106965"/>
    <field name="" show="Source GeoIP: Unknown" size="4" pos="26" value="0f92c143"/>
    <field name="" show="Destination GeoIP: Unknown" size="4" pos="30" value="ac106965"/>
  </proto>
  <proto name="tcp" showname="Transmission Control Protocol, Src Port: 6633 (6633), Dst Port: 56548 (56548), Seq: 175, Ack: 1889, Len: 318" size="32" pos="34">
    <field name="tcp.srcport" showname="Source port: 6633 (6633)" size="2" pos="34" show="6633" value="19e9"/>
    <field name="tcp.dstport" showname="Destination port: 56548 (56548)" size="2" pos="36" show="56548" value="dce4"/>
    <field name="tcp.port" showname="Source or Destination Port: 6633" hide="yes" size="2" pos="34" show="6633" value="19e9"/>
    <field name="tcp.port" showname="Source or Destination Port: 56548" hide="yes" size="2" pos="36" show="56548" value="dce4"/>
    <field name="tcp.stream" showname="Stream index: 0" size="0" pos="34" show="0"/>
    <field name="tcp.len" showname="TCP Segment Len: 318" hide="yes" size="1" pos="46" show="318" value="80"/>
    <field name="tcp.seq" showname="Sequence number: 175    (relative sequence number)" size="4" pos="38" show="175" value="9d90e380"/>
    <field name="tcp.nxtseq" showname="Next sequence number: 493    (relative sequence number)" size="0" pos="34" show="493"/>
    <field name="tcp.ack" showname="Acknowledgment number: 1889    (relative ack number)" size="4" pos="42" show="1889" value="2b87a68f"/>
    <field name="tcp.hdr_len" showname="Header length: 32 bytes" size="1" pos="46" show="32" value="80"/>
    <field name="tcp.flags" showname="Flags: 0x018 (PSH, ACK)" size="2" pos="46" show="0x0018" value="18" unmaskedvalue="8018">
      <field name="tcp.flags.res" showname="000. .... .... = Reserved: Not set" size="1" pos="46" show="0" value="0" unmaskedvalue="80"/>
      <field name="tcp.flags.ns" showname="...0 .... .... = Nonce: Not set" size="1" pos="46" show="0" value="0" unmaskedvalue="80"/>
      <field name="tcp.flags.cwr" showname=".... 0... .... = Congestion Window Reduced (CWR): Not set" size="1" pos="47" show="0" value="0" unmaskedvalue="18"/>
      <field name="tcp.flags.ecn" showname=".... .0.. .... = ECN-Echo: Not set" size="1" pos="47" show="0" value="0" unmaskedvalue="18"/>
      <field name="tcp.flags.urg" showname=".... ..0. .... = Urgent: Not set" size="1" pos="47" show="0" value="0" unmaskedvalue="18"/>
      <field name="tcp.flags.ack" showname=".... ...1 .... = Acknowledgment: Set" size="1" pos="47" show="1" value="1" unmaskedvalue="18"/>
      <field name="tcp.flags.push" showname=".... .... 1... = Push: Set" size="1" pos="47" show="1" value="1" unmaskedvalue="18"/>
      <field name="tcp.flags.reset" showname=".... .... .0.. = Reset: Not set" size="1" pos="47" show="0" value="0" unmaskedvalue="18"/>
      <field name="tcp.flags.syn" showname=".... .... ..0. = Syn: Not set" size="1" pos="47" show="0" value="0" unmaskedvalue="18"/>
      <field name="tcp.flags.fin" showname=".... .... ...0 = Fin: Not set" size="1" pos="47" show="0" value="0" unmaskedvalue="18"/>
    </field>
    <field name="tcp.window_size_value" showname="Window size value: 290" size="2" pos="48" show="290" value="0122"/>
    <field name="tcp.window_size" showname="Calculated window size: 18560" size="2" pos="48" show="18560" value="0122"/>
    <field name="tcp.window_size_scalefactor" showname="Window size scaling factor: 64" size="2" pos="48" show="64" value="0122"/>
    <field name="tcp.checksum" showname="Checksum: 0xe7af [validation disabled]" size="2" pos="50" show="0xe7af" value="e7af">
      <field name="tcp.checksum_good" showname="Good Checksum: False" size="2" pos="50" show="0" value="e7af"/>
      <field name="tcp.checksum_bad" showname="Bad Checksum: False" size="2" pos="50" show="0" value="e7af"/>
    </field>
    <field name="tcp.options" showname="Options: (12 bytes), No-Operation (NOP), No-Operation (NOP), Timestamps" size="12" pos="54" show="01:01:08:0a:00:03:07:17:4d:18:3f:06" value="0101080a000307174d183f06">
      <field name="" show="No-Operation (NOP)" size="1" pos="54" value="01">
        <field name="ip.opt.type" showname="Type: 1" size="1" pos="54" show="1" value="01">
          <field name="ip.opt.type.copy" showname="0... .... = Copy on fragmentation: No" size="1" pos="54" show="0" value="0" unmaskedvalue="01"/>
          <field name="ip.opt.type.class" showname=".00. .... = Class: Control (0)" size="1" pos="54" show="0" value="0" unmaskedvalue="01"/>
          <field name="ip.opt.type.number" showname="...0 0001 = Number: No-Operation (NOP) (1)" size="1" pos="54" show="1" value="1" unmaskedvalue="01"/>
        </field>
      </field>
      <field name="" show="No-Operation (NOP)" size="1" pos="55" value="01">
        <field name="ip.opt.type" showname="Type: 1" size="1" pos="55" show="1" value="01">
          <field name="ip.opt.type.copy" showname="0... .... = Copy on fragmentation: No" size="1" pos="55" show="0" value="0" unmaskedvalue="01"/>
          <field name="ip.opt.type.class" showname=".00. .... = Class: Control (0)" size="1" pos="55" show="0" value="0" unmaskedvalue="01"/>
          <field name="ip.opt.type.number" showname="...0 0001 = Number: No-Operation (NOP) (1)" size="1" pos="55" show="1" value="1" unmaskedvalue="01"/>
        </field>
      </field>
      <field name="" show="Timestamps: TSval 198423, TSecr 1293434630" size="10" pos="56" value="080a000307174d183f06">
        <field name="tcp.option_kind" showname="Kind: Timestamp (8)" size="1" pos="56" show="8" value="08"/>
        <field name="tcp.option_len" showname="Length: 10" size="1" pos="57" show="10" value="0a"/>
        <field name="tcp.options.timestamp.tsval" showname="Timestamp value: 198423" size="4" pos="58" show="198423" value="00030717"/>
        <field name="tcp.options.timestamp.tsecr" showname="Timestamp echo reply: 1293434630" size="4" pos="62" show="1293434630" value="4d183f06"/>
      </field>
    </field>
    <field name="tcp.analysis" showname="SEQ/ACK analysis" size="0" pos="34" show="" value="">
      <field name="tcp.analysis.bytes_in_flight" showname="Bytes in flight: 318" size="0" pos="34" show="318"/>
    </field>
  </proto>
  <proto name="fake-field-wrapper">
    <field name="data" value="040d006a00000439fffffffffffffffd00100000000000000000001000000005ffff000000000000ffffffffffff0021f71a870089990207040021f71a8700040407307835060200780c0f353639373539393138333431303338fe0c0026e10000080021f71a87000000040d006a0000043afffffffffffffffd0010000000000000000000100000000bffff0000000000000180c200000e0021f71a870088cc0207040021f71a8700040407307862060200780c0f353639373539393138333431303338fe0c0026e10000080021f71a87000000040d006a0000043bfffffffffffffffd0010000000000000000000100000000bffff000000000000ffffffffffff0021f71a870089990207040021f71a8700040407307862060200780c0f353639373539393138333431303338fe0c0026e10000080021f71a87000000">
      <field name="data.data" showname="Data: 040d006a00000439fffffffffffffffd0010000000000000..." size="318" pos="66" show="04:0d:00:6a:00:00:04:39:ff:ff:ff:ff:ff:ff:ff:fd:00:10:00:00:00:00:00:00:00:00:00:10:00:00:00:05:ff:ff:00:00:00:00:00:00:ff:ff:ff:ff:ff:ff:00:21:f7:1a:87:00:89:99:02:07:04:00:21:f7:1a:87:00:04:04:07:30:78:35:06:02:00:78:0c:0f:35:36:39:37:35:39:39:31:38:33:34:31:30:33:38:fe:0c:00:26:e1:00:00:08:00:21:f7:1a:87:00:00:00:04:0d:00:6a:00:00:04:3a:ff:ff:ff:ff:ff:ff:ff:fd:00:10:00:00:00:00:00:00:00:00:00:10:00:00:00:0b:ff:ff:00:00:00:00:00:00:01:80:c2:00:00:0e:00:21:f7:1a:87:00:88:cc:02:07:04:00:21:f7:1a:87:00:04:04:07:30:78:62:06:02:00:78:0c:0f:35:36:39:37:35:39:39:31:38:33:34:31:30:33:38:fe:0c:00:26:e1:00:00:08:00:21:f7:1a:87:00:00:00:04:0d:00:6a:00:00:04:3b:ff:ff:ff:ff:ff:ff:ff:fd:00:10:00:00:00:00:00:00:00:00:00:10:00:00:00:0b:ff:ff:00:00:00:00:00:00:ff:ff:ff:ff:ff:ff:00:21:f7:1a:87:00:89:99:02:07:04:00:21:f7:1a:87:00:04:04:07:30:78:62:06:02:00:78:0c:0f:35:36:39:37:35:39:39:31:38:33:34:31:30:33:38:fe:0c:00:26:e1:00:00:08:00:21:f7:1a:87:00:00:00" value="040d006a00000439fffffffffffffffd00100000000000000000001000000005ffff000000000000ffffffffffff0021f71a870089990207040021f71a8700040407307835060200780c0f353639373539393138333431303338fe0c0026e10000080021f71a87000000040d006a0000043afffffffffffffffd0010000000000000000000100000000bffff0000000000000180c200000e0021f71a870088cc0207040021f71a8700040407307862060200780c0f353639373539393138333431303338fe0c0026e10000080021f71a87000000040d006a0000043bfffffffffffffffd0010000000000000000000100000000bffff000000000000ffffffffffff0021f71a870089990207040021f71a8700040407307862060200780c0f353639373539393138333431303338fe0c0026e10000080021f71a87000000"/>
      <field name="data.len" showname="Length: 318" size="0" pos="66" show="318"/>
  </field>
</proto>
</packet>

<packet>
  <proto name="geninfo" pos="0" showname="General information" size="74">
    <field name="num" pos="0" show="32" showname="Number" value="20" size="74"/>
    <field name="len" pos="0" show="74" showname="Frame Length" value="4a" size="74"/>
    <field name="caplen" pos="0" show="74" showname="Captured Length" value="4a" size="74"/>
    <field name="timestamp" pos="0" show="Feb  4, 2012 21:50:31.687249000 Pacific Standard Time" showname="Captured Time" value="1328421031.687249000" size="74"/>
  </proto>
  <proto name="frame" showname="Frame 32: 74 bytes on wire (592 bits), 74 bytes captured (592 bits)" size="74" pos="0">
    <field name="frame.encap_type" showname="Encapsulation type: Ethernet (1)" size="0" pos="0" show="1"/>
    <field name="frame.time" showname="Arrival Time: Feb  4, 2012 21:50:31.687249000 Pacific Standard Time" size="0" pos="0" show="Feb  4, 2012 21:50:31.687249000"/>
    <field name="frame.offset_shift" showname="Time shift for this packet: 0.000000000 seconds" size="0" pos="0" show="0.000000000"/>
    <field name="frame.time_epoch" showname="Epoch Time: 1328421031.687249000 seconds" size="0" pos="0" show="1328421031.687249000"/>
    <field name="frame.time_delta" showname="Time delta from previous captured frame: 3.908848000 seconds" size="0" pos="0" show="3.908848000"/>
    <field name="frame.time_delta_displayed" showname="Time delta from previous displayed frame: 4.108805000 seconds" size="0" pos="0" show="4.108805000"/>
    <field name="frame.time_relative" showname="Time since reference or first frame: 7.374666000 seconds" size="0" pos="0" show="7.374666000"/>
    <field name="frame.number" showname="Frame Number: 32" size="0" pos="0" show="32"/>
    <field name="frame.len" showname="Frame Length: 74 bytes (592 bits)" size="0" pos="0" show="74"/>
    <field name="frame.cap_len" showname="Capture Length: 74 bytes (592 bits)" size="0" pos="0" show="74"/>
    <field name="frame.marked" showname="Frame is marked: False" size="0" pos="0" show="0"/>
    <field name="frame.ignored" showname="Frame is ignored: False" size="0" pos="0" show="0"/>
    <field name="frame.protocols" showname="Protocols in frame: eth:ip:tcp:data" size="0" pos="0" show="eth:ip:tcp:data"/>
    <field name="frame.coloring_rule.name" showname="Coloring Rule Name: TCP" size="0" pos="0" show="TCP"/>
    <field name="frame.coloring_rule.string" showname="Coloring Rule String: tcp" size="0" pos="0" show="tcp"/>
  </proto>
  <proto name="eth" showname="Ethernet II, Src: Vmware_d3:f3:c8 (00:0c:29:d3:f3:c8), Dst: HpnSuppl_f3:48:00 (00:21:f7:f3:48:00)" size="14" pos="0">
    <field name="eth.dst" showname="Destination: HpnSuppl_f3:48:00 (00:21:f7:f3:48:00)" size="6" pos="0" show="00:21:f7:f3:48:00" value="0021f7f34800">
      <field name="eth.addr" showname="Address: HpnSuppl_f3:48:00 (00:21:f7:f3:48:00)" size="6" pos="0" show="00:21:f7:f3:48:00" value="0021f7f34800"/>
      <field name="eth.lg" showname=".... ..0. .... .... .... .... = LG bit: Globally unique address (factory default)" size="3" pos="0" show="0" value="0" unmaskedvalue="0021f7"/>
      <field name="eth.ig" showname=".... ...0 .... .... .... .... = IG bit: Individual address (unicast)" size="3" pos="0" show="0" value="0" unmaskedvalue="0021f7"/>
    </field>
    <field name="eth.src" showname="Source: Vmware_d3:f3:c8 (00:0c:29:d3:f3:c8)" size="6" pos="6" show="00:0c:29:d3:f3:c8" value="000c29d3f3c8">
      <field name="eth.addr" showname="Address: Vmware_d3:f3:c8 (00:0c:29:d3:f3:c8)" size="6" pos="6" show="00:0c:29:d3:f3:c8" value="000c29d3f3c8"/>
      <field name="eth.lg" showname=".... ..0. .... .... .... .... = LG bit: Globally unique address (factory default)" size="3" pos="6" show="0" value="0" unmaskedvalue="000c29"/>
      <field name="eth.ig" showname=".... ...0 .... .... .... .... = IG bit: Individual address (unicast)" size="3" pos="6" show="0" value="0" unmaskedvalue="000c29"/>
    </field>
    <field name="eth.type" showname="Type: IP (0x0800)" size="2" pos="12" show="0x0800" value="0800"/>
  </proto>
  <proto name="ip" showname="Internet Protocol Version 4, Src: 15.146.193.67 (15.146.193.67), Dst: 172.16.105.101 (172.16.105.101)" size="20" pos="14">
    <field name="ip.version" showname="Version: 4" size="1" pos="14" show="4" value="45"/>
    <field name="ip.hdr_len" showname="Header length: 20 bytes" size="1" pos="14" show="20" value="45"/>
    <field name="ip.dsfield" showname="Differentiated Services Field: 0x00 (DSCP 0x00: Default; ECN: 0x00: Not-ECT (Not ECN-Capable Transport))" size="1" pos="15" show="0" value="00">
      <field name="ip.dsfield.dscp" showname="0000 00.. = Differentiated Services Codepoint: Default (0x00)" size="1" pos="15" show="0x00" value="0" unmaskedvalue="00"/>
      <field name="ip.dsfield.ecn" showname=".... ..00 = Explicit Congestion Notification: Not-ECT (Not ECN-Capable Transport) (0x00)" size="1" pos="15" show="0x00" value="0" unmaskedvalue="00"/>
    </field>
    <field name="ip.len" showname="Total Length: 60" size="2" pos="16" show="60" value="003c"/>
    <field name="ip.id" showname="Identification: 0xe140 (57664)" size="2" pos="18" show="0xe140" value="e140"/>
    <field name="ip.flags" showname="Flags: 0x02 (Don&apos;t Fragment)" size="1" pos="20" show="0x02" value="40">
      <field name="ip.flags.rb" showname="0... .... = Reserved bit: Not set" size="1" pos="20" show="0" value="40"/>
      <field name="ip.flags.df" showname=".1.. .... = Don&apos;t fragment: Set" size="1" pos="20" show="1" value="40"/>
      <field name="ip.flags.mf" showname="..0. .... = More fragments: Not set" size="1" pos="20" show="0" value="40"/>
    </field>
    <field name="ip.frag_offset" showname="Fragment offset: 0" size="2" pos="20" show="0" value="4000"/>
    <field name="ip.ttl" showname="Time to live: 64" size="1" pos="22" show="64" value="40"/>
    <field name="ip.proto" showname="Protocol: TCP (6)" size="1" pos="23" show="6" value="06"/>
    <field name="ip.checksum" showname="Header checksum: 0x7330 [correct]" size="2" pos="24" show="0x7330" value="7330">
      <field name="ip.checksum_good" showname="Good: True" size="2" pos="24" show="1" value="7330"/>
      <field name="ip.checksum_bad" showname="Bad: False" size="2" pos="24" show="0" value="7330"/>
    </field>
    <field name="ip.src" showname="Source: 15.146.193.67 (15.146.193.67)" size="4" pos="26" show="15.146.193.67" value="0f92c143"/>
    <field name="ip.addr" showname="Source or Destination Address: 15.146.193.67 (15.146.193.67)" hide="yes" size="4" pos="26" show="15.146.193.67" value="0f92c143"/>
    <field name="ip.src_host" showname="Source Host: 15.146.193.67" hide="yes" size="4" pos="26" show="15.146.193.67" value="0f92c143"/>
    <field name="ip.host" showname="Source or Destination Host: 15.146.193.67" hide="yes" size="4" pos="26" show="15.146.193.67" value="0f92c143"/>
    <field name="ip.dst" showname="Destination: 172.16.105.101 (172.16.105.101)" size="4" pos="30" show="172.16.105.101" value="ac106965"/>
    <field name="ip.addr" showname="Source or Destination Address: 172.16.105.101 (172.16.105.101)" hide="yes" size="4" pos="30" show="172.16.105.101" value="ac106965"/>
    <field name="ip.dst_host" showname="Destination Host: 172.16.105.101" hide="yes" size="4" pos="30" show="172.16.105.101" value="ac106965"/>
    <field name="ip.host" showname="Source or Destination Host: 172.16.105.101" hide="yes" size="4" pos="30" show="172.16.105.101" value="ac106965"/>
    <field name="" show="Source GeoIP: Unknown" size="4" pos="26" value="0f92c143"/>
    <field name="" show="Destination GeoIP: Unknown" size="4" pos="30" value="ac106965"/>
  </proto>
  <proto name="tcp" showname="Transmission Control Protocol, Src Port: 6633 (6633), Dst Port: 56548 (56548), Seq: 493, Ack: 1889, Len: 8" size="32" pos="34">
    <field name="tcp.srcport" showname="Source port: 6633 (6633)" size="2" pos="34" show="6633" value="19e9"/>
    <field name="tcp.dstport" showname="Destination port: 56548 (56548)" size="2" pos="36" show="56548" value="dce4"/>
    <field name="tcp.port" showname="Source or Destination Port: 6633" hide="yes" size="2" pos="34" show="6633" value="19e9"/>
    <field name="tcp.port" showname="Source or Destination Port: 56548" hide="yes" size="2" pos="36" show="56548" value="dce4"/>
    <field name="tcp.stream" showname="Stream index: 0" size="0" pos="34" show="0"/>
    <field name="tcp.len" showname="TCP Segment Len: 8" hide="yes" size="1" pos="46" show="8" value="80"/>
    <field name="tcp.seq" showname="Sequence number: 493    (relative sequence number)" size="4" pos="38" show="493" value="9d90e4be"/>
    <field name="tcp.nxtseq" showname="Next sequence number: 501    (relative sequence number)" size="0" pos="34" show="501"/>
    <field name="tcp.ack" showname="Acknowledgment number: 1889    (relative ack number)" size="4" pos="42" show="1889" value="2b87a68f"/>
    <field name="tcp.hdr_len" showname="Header length: 32 bytes" size="1" pos="46" show="32" value="80"/>
    <field name="tcp.flags" showname="Flags: 0x018 (PSH, ACK)" size="2" pos="46" show="0x0018" value="18" unmaskedvalue="8018">
      <field name="tcp.flags.res" showname="000. .... .... = Reserved: Not set" size="1" pos="46" show="0" value="0" unmaskedvalue="80"/>
      <field name="tcp.flags.ns" showname="...0 .... .... = Nonce: Not set" size="1" pos="46" show="0" value="0" unmaskedvalue="80"/>
      <field name="tcp.flags.cwr" showname=".... 0... .... = Congestion Window Reduced (CWR): Not set" size="1" pos="47" show="0" value="0" unmaskedvalue="18"/>
      <field name="tcp.flags.ecn" showname=".... .0.. .... = ECN-Echo: Not set" size="1" pos="47" show="0" value="0" unmaskedvalue="18"/>
      <field name="tcp.flags.urg" showname=".... ..0. .... = Urgent: Not set" size="1" pos="47" show="0" value="0" unmaskedvalue="18"/>
      <field name="tcp.flags.ack" showname=".... ...1 .... = Acknowledgment: Set" size="1" pos="47" show="1" value="1" unmaskedvalue="18"/>
      <field name="tcp.flags.push" showname=".... .... 1... = Push: Set" size="1" pos="47" show="1" value="1" unmaskedvalue="18"/>
      <field name="tcp.flags.reset" showname=".... .... .0.. = Reset: Not set" size="1" pos="47" show="0" value="0" unmaskedvalue="18"/>
      <field name="tcp.flags.syn" showname=".... .... ..0. = Syn: Not set" size="1" pos="47" show="0" value="0" unmaskedvalue="18"/>
      <field name="tcp.flags.fin" showname=".... .... ...0 = Fin: Not set" size="1" pos="47" show="0" value="0" unmaskedvalue="18"/>
    </field>
    <field name="tcp.window_size_value" showname="Window size value: 290" size="2" pos="48" show="290" value="0122"/>
    <field name="tcp.window_size" showname="Calculated window size: 18560" size="2" pos="48" show="18560" value="0122"/>
    <field name="tcp.window_size_scalefactor" showname="Window size scaling factor: 64" size="2" pos="48" show="64" value="0122"/>
    <field name="tcp.checksum" showname="Checksum: 0xe679 [validation disabled]" size="2" pos="50" show="0xe679" value="e679">
      <field name="tcp.checksum_good" showname="Good Checksum: False" size="2" pos="50" show="0" value="e679"/>
      <field name="tcp.checksum_bad" showname="Bad Checksum: False" size="2" pos="50" show="0" value="e679"/>
    </field>
    <field name="tcp.options" showname="Options: (12 bytes), No-Operation (NOP), No-Operation (NOP), Timestamps" size="12" pos="54" show="01:01:08:0a:00:03:0b:1b:4d:18:3f:ce" value="0101080a00030b1b4d183fce">
      <field name="" show="No-Operation (NOP)" size="1" pos="54" value="01">
        <field name="ip.opt.type" showname="Type: 1" size="1" pos="54" show="1" value="01">
          <field name="ip.opt.type.copy" showname="0... .... = Copy on fragmentation: No" size="1" pos="54" show="0" value="0" unmaskedvalue="01"/>
          <field name="ip.opt.type.class" showname=".00. .... = Class: Control (0)" size="1" pos="54" show="0" value="0" unmaskedvalue="01"/>
          <field name="ip.opt.type.number" showname="...0 0001 = Number: No-Operation (NOP) (1)" size="1" pos="54" show="1" value="1" unmaskedvalue="01"/>
        </field>
      </field>
      <field name="" show="No-Operation (NOP)" size="1" pos="55" value="01">
        <field name="ip.opt.type" showname="Type: 1" size="1" pos="55" show="1" value="01">
          <field name="ip.opt.type.copy" showname="0... .... = Copy on fragmentation: No" size="1" pos="55" show="0" value="0" unmaskedvalue="01"/>
          <field name="ip.opt.type.class" showname=".00. .... = Class: Control (0)" size="1" pos="55" show="0" value="0" unmaskedvalue="01"/>
          <field name="ip.opt.type.number" showname="...0 0001 = Number: No-Operation (NOP) (1)" size="1" pos="55" show="1" value="1" unmaskedvalue="01"/>
        </field>
      </field>
      <field name="" show="Timestamps: TSval 199451, TSecr 1293434830" size="10" pos="56" value="080a00030b1b4d183fce">
        <field name="tcp.option_kind" showname="Kind: Timestamp (8)" size="1" pos="56" show="8" value="08"/>
        <field name="tcp.option_len" showname="Length: 10" size="1" pos="57" show="10" value="0a"/>
        <field name="tcp.options.timestamp.tsval" showname="Timestamp value: 199451" size="4" pos="58" show="199451" value="00030b1b"/>
        <field name="tcp.options.timestamp.tsecr" showname="Timestamp echo reply: 1293434830" size="4" pos="62" show="1293434830" value="4d183fce"/>
      </field>
    </field>
    <field name="tcp.analysis" showname="SEQ/ACK analysis" size="0" pos="34" show="" value="">
      <field name="tcp.analysis.bytes_in_flight" showname="Bytes in flight: 8" size="0" pos="34" show="8"/>
    </field>
  </proto>
  <proto name="fake-field-wrapper">
    <field name="data" value="0402000800000443">
      <field name="data.data" showname="Data: 0402000800000443" size="8" pos="66" show="04:02:00:08:00:00:04:43" value="0402000800000443"/>
      <field name="data.len" showname="Length: 8" size="0" pos="66" show="8"/>
  </field>
</proto>
</packet>

<packet>
  <proto name="geninfo" pos="0" showname="General information" size="74">
    <field name="num" pos="0" show="33" showname="Number" value="21" size="74"/>
    <field name="len" pos="0" show="74" showname="Frame Length" value="4a" size="74"/>
    <field name="caplen" pos="0" show="74" showname="Captured Length" value="4a" size="74"/>
    <field name="timestamp" pos="0" show="Feb  4, 2012 21:50:31.688687000 Pacific Standard Time" showname="Captured Time" value="1328421031.688687000" size="74"/>
  </proto>
  <proto name="frame" showname="Frame 33: 74 bytes on wire (592 bits), 74 bytes captured (592 bits)" size="74" pos="0">
    <field name="frame.encap_type" showname="Encapsulation type: Ethernet (1)" size="0" pos="0" show="1"/>
    <field name="frame.time" showname="Arrival Time: Feb  4, 2012 21:50:31.688687000 Pacific Standard Time" size="0" pos="0" show="Feb  4, 2012 21:50:31.688687000"/>
    <field name="frame.offset_shift" showname="Time shift for this packet: 0.000000000 seconds" size="0" pos="0" show="0.000000000"/>
    <field name="frame.time_epoch" showname="Epoch Time: 1328421031.688687000 seconds" size="0" pos="0" show="1328421031.688687000"/>
    <field name="frame.time_delta" showname="Time delta from previous captured frame: 0.001438000 seconds" size="0" pos="0" show="0.001438000"/>
    <field name="frame.time_delta_displayed" showname="Time delta from previous displayed frame: 0.001438000 seconds" size="0" pos="0" show="0.001438000"/>
    <field name="frame.time_relative" showname="Time since reference or first frame: 7.376104000 seconds" size="0" pos="0" show="7.376104000"/>
    <field name="frame.number" showname="Frame Number: 33" size="0" pos="0" show="33"/>
    <field name="frame.len" showname="Frame Length: 74 bytes (592 bits)" size="0" pos="0" show="74"/>
    <field name="frame.cap_len" showname="Capture Length: 74 bytes (592 bits)" size="0" pos="0" show="74"/>
    <field name="frame.marked" showname="Frame is marked: False" size="0" pos="0" show="0"/>
    <field name="frame.ignored" showname="Frame is ignored: False" size="0" pos="0" show="0"/>
    <field name="frame.protocols" showname="Protocols in frame: eth:ip:tcp:data" size="0" pos="0" show="eth:ip:tcp:data"/>
    <field name="frame.coloring_rule.name" showname="Coloring Rule Name: TCP" size="0" pos="0" show="TCP"/>
    <field name="frame.coloring_rule.string" showname="Coloring Rule String: tcp" size="0" pos="0" show="tcp"/>
  </proto>
  <proto name="eth" showname="Ethernet II, Src: Vmware_d3:f3:c8 (00:0c:29:d3:f3:c8), Dst: HpnSuppl_f3:48:00 (00:21:f7:f3:48:00)" size="14" pos="0">
    <field name="eth.dst" showname="Destination: HpnSuppl_f3:48:00 (00:21:f7:f3:48:00)" size="6" pos="0" show="00:21:f7:f3:48:00" value="0021f7f34800">
      <field name="eth.addr" showname="Address: HpnSuppl_f3:48:00 (00:21:f7:f3:48:00)" size="6" pos="0" show="00:21:f7:f3:48:00" value="0021f7f34800"/>
      <field name="eth.lg" showname=".... ..0. .... .... .... .... = LG bit: Globally unique address (factory default)" size="3" pos="0" show="0" value="0" unmaskedvalue="0021f7"/>
      <field name="eth.ig" showname=".... ...0 .... .... .... .... = IG bit: Individual address (unicast)" size="3" pos="0" show="0" value="0" unmaskedvalue="0021f7"/>
    </field>
    <field name="eth.src" showname="Source: Vmware_d3:f3:c8 (00:0c:29:d3:f3:c8)" size="6" pos="6" show="00:0c:29:d3:f3:c8" value="000c29d3f3c8">
      <field name="eth.addr" showname="Address: Vmware_d3:f3:c8 (00:0c:29:d3:f3:c8)" size="6" pos="6" show="00:0c:29:d3:f3:c8" value="000c29d3f3c8"/>
      <field name="eth.lg" showname=".... ..0. .... .... .... .... = LG bit: Globally unique address (factory default)" size="3" pos="6" show="0" value="0" unmaskedvalue="000c29"/>
      <field name="eth.ig" showname=".... ...0 .... .... .... .... = IG bit: Individual address (unicast)" size="3" pos="6" show="0" value="0" unmaskedvalue="000c29"/>
    </field>
    <field name="eth.type" showname="Type: IP (0x0800)" size="2" pos="12" show="0x0800" value="0800"/>
  </proto>
  <proto name="ip" showname="Internet Protocol Version 4, Src: 15.146.193.67 (15.146.193.67), Dst: 172.16.105.101 (172.16.105.101)" size="20" pos="14">
    <field name="ip.version" showname="Version: 4" size="1" pos="14" show="4" value="45"/>
    <field name="ip.hdr_len" showname="Header length: 20 bytes" size="1" pos="14" show="20" value="45"/>
    <field name="ip.dsfield" showname="Differentiated Services Field: 0x00 (DSCP 0x00: Default; ECN: 0x00: Not-ECT (Not ECN-Capable Transport))" size="1" pos="15" show="0" value="00">
      <field name="ip.dsfield.dscp" showname="0000 00.. = Differentiated Services Codepoint: Default (0x00)" size="1" pos="15" show="0x00" value="0" unmaskedvalue="00"/>
      <field name="ip.dsfield.ecn" showname=".... ..00 = Explicit Congestion Notification: Not-ECT (Not ECN-Capable Transport) (0x00)" size="1" pos="15" show="0x00" value="0" unmaskedvalue="00"/>
    </field>
    <field name="ip.len" showname="Total Length: 60" size="2" pos="16" show="60" value="003c"/>
    <field name="ip.id" showname="Identification: 0x6408 (25608)" size="2" pos="18" show="0x6408" value="6408"/>
    <field name="ip.flags" showname="Flags: 0x02 (Don&apos;t Fragment)" size="1" pos="20" show="0x02" value="40">
      <field name="ip.flags.rb" showname="0... .... = Reserved bit: Not set" size="1" pos="20" show="0" value="40"/>
      <field name="ip.flags.df" showname=".1.. .... = Don&apos;t fragment: Set" size="1" pos="20" show="1" value="40"/>
      <field name="ip.flags.mf" showname="..0. .... = More fragments: Not set" size="1" pos="20" show="0" value="40"/>
    </field>
    <field name="ip.frag_offset" showname="Fragment offset: 0" size="2" pos="20" show="0" value="4000"/>
    <field name="ip.ttl" showname="Time to live: 64" size="1" pos="22" show="64" value="40"/>
    <field name="ip.proto" showname="Protocol: TCP (6)" size="1" pos="23" show="6" value="06"/>
    <field name="ip.checksum" showname="Header checksum: 0xf068 [correct]" size="2" pos="24" show="0xf068" value="f068">
      <field name="ip.checksum_good" showname="Good: True" size="2" pos="24" show="1" value="f068"/>
      <field name="ip.checksum_bad" showname="Bad: False" size="2" pos="24" show="0" value="f068"/>
    </field>
    <field name="ip.src" showname="Source: 15.146.193.67 (15.146.193.67)" size="4" pos="26" show="15.146.193.67" value="0f92c143"/>
    <field name="ip.addr" showname="Source or Destination Address: 15.146.193.67 (15.146.193.67)" hide="yes" size="4" pos="26" show="15.146.193.67" value="0f92c143"/>
    <field name="ip.src_host" showname="Source Host: 15.146.193.67" hide="yes" size="4" pos="26" show="15.146.193.67" value="0f92c143"/>
    <field name="ip.host" showname="Source or Destination Host: 15.146.193.67" hide="yes" size="4" pos="26" show="15.146.193.67" value="0f92c143"/>
    <field name="ip.dst" showname="Destination: 172.16.105.101 (172.16.105.101)" size="4" pos="30" show="172.16.105.101" value="ac106965"/>
    <field name="ip.addr" showname="Source or Destination Address: 172.16.105.101 (172.16.105.101)" hide="yes" size="4" pos="30" show="172.16.105.101" value="ac106965"/>
    <field name="ip.dst_host" showname="Destination Host: 172.16.105.101" hide="yes" size="4" pos="30" show="172.16.105.101" value="ac106965"/>
    <field name="ip.host" showname="Source or Destination Host: 172.16.105.101" hide="yes" size="4" pos="30" show="172.16.105.101" value="ac106965"/>
    <field name="" show="Source GeoIP: Unknown" size="4" pos="26" value="0f92c143"/>
    <field name="" show="Destination GeoIP: Unknown" size="4" pos="30" value="ac106965"/>
  </proto>
  <proto name="tcp" showname="Transmission Control Protocol, Src Port: 6633 (6633), Dst Port: 50370 (50370), Seq: 25, Ack: 41, Len: 8" size="32" pos="34">
    <field name="tcp.srcport" showname="Source port: 6633 (6633)" size="2" pos="34" show="6633" value="19e9"/>
    <field name="tcp.dstport" showname="Destination port: 50370 (50370)" size="2" pos="36" show="50370" value="c4c2"/>
    <field name="tcp.port" showname="Source or Destination Port: 6633" hide="yes" size="2" pos="34" show="6633" value="19e9"/>
    <field name="tcp.port" showname="Source or Destination Port: 50370" hide="yes" size="2" pos="36" show="50370" value="c4c2"/>
    <field name="tcp.stream" showname="Stream index: 1" size="0" pos="34" show="1"/>
    <field name="tcp.len" showname="TCP Segment Len: 8" hide="yes" size="1" pos="46" show="8" value="80"/>
    <field name="tcp.seq" showname="Sequence number: 25    (relative sequence number)" size="4" pos="38" show="25" value="13b76205"/>
    <field name="tcp.nxtseq" showname="Next sequence number: 33    (relative sequence number)" size="0" pos="34" show="33"/>
    <field name="tcp.ack" showname="Acknowledgment number: 41    (relative ack number)" size="4" pos="42" show="41" value="2b8ff5cf"/>
    <field name="tcp.hdr_len" showname="Header length: 32 bytes" size="1" pos="46" show="32" value="80"/>
    <field name="tcp.flags" showname="Flags: 0x018 (PSH, ACK)" size="2" pos="46" show="0x0018" value="18" unmaskedvalue="8018">
      <field name="tcp.flags.res" showname="000. .... .... = Reserved: Not set" size="1" pos="46" show="0" value="0" unmaskedvalue="80"/>
      <field name="tcp.flags.ns" showname="...0 .... .... = Nonce: Not set" size="1" pos="46" show="0" value="0" unmaskedvalue="80"/>
      <field name="tcp.flags.cwr" showname=".... 0... .... = Congestion Window Reduced (CWR): Not set" size="1" pos="47" show="0" value="0" unmaskedvalue="18"/>
      <field name="tcp.flags.ecn" showname=".... .0.. .... = ECN-Echo: Not set" size="1" pos="47" show="0" value="0" unmaskedvalue="18"/>
      <field name="tcp.flags.urg" showname=".... ..0. .... = Urgent: Not set" size="1" pos="47" show="0" value="0" unmaskedvalue="18"/>
      <field name="tcp.flags.ack" showname=".... ...1 .... = Acknowledgment: Set" size="1" pos="47" show="1" value="1" unmaskedvalue="18"/>
      <field name="tcp.flags.push" showname=".... .... 1... = Push: Set" size="1" pos="47" show="1" value="1" unmaskedvalue="18"/>
      <field name="tcp.flags.reset" showname=".... .... .0.. = Reset: Not set" size="1" pos="47" show="0" value="0" unmaskedvalue="18"/>
      <field name="tcp.flags.syn" showname=".... .... ..0. = Syn: Not set" size="1" pos="47" show="0" value="0" unmaskedvalue="18"/>
      <field name="tcp.flags.fin" showname=".... .... ...0 = Fin: Not set" size="1" pos="47" show="0" value="0" unmaskedvalue="18"/>
    </field>
    <field name="tcp.window_size_value" showname="Window size value: 227" size="2" pos="48" show="227" value="00e3"/>
    <field name="tcp.window_size" showname="Calculated window size: 14528" size="2" pos="48" show="14528" value="00e3"/>
    <field name="tcp.window_size_scalefactor" showname="Window size scaling factor: 64" size="2" pos="48" show="64" value="00e3"/>
    <field name="tcp.checksum" showname="Checksum: 0xe679 [validation disabled]" size="2" pos="50" show="0xe679" value="e679">
      <field name="tcp.checksum_good" showname="Good Checksum: False" size="2" pos="50" show="0" value="e679"/>
      <field name="tcp.checksum_bad" showname="Bad Checksum: False" size="2" pos="50" show="0" value="e679"/>
    </field>
    <field name="tcp.options" showname="Options: (12 bytes), No-Operation (NOP), No-Operation (NOP), Timestamps" size="12" pos="54" show="01:01:08:0a:00:03:0b:1b:4d:18:3b:14" value="0101080a00030b1b4d183b14">
      <field name="" show="No-Operation (NOP)" size="1" pos="54" value="01">
        <field name="ip.opt.type" showname="Type: 1" size="1" pos="54" show="1" value="01">
          <field name="ip.opt.type.copy" showname="0... .... = Copy on fragmentation: No" size="1" pos="54" show="0" value="0" unmaskedvalue="01"/>
          <field name="ip.opt.type.class" showname=".00. .... = Class: Control (0)" size="1" pos="54" show="0" value="0" unmaskedvalue="01"/>
          <field name="ip.opt.type.number" showname="...0 0001 = Number: No-Operation (NOP) (1)" size="1" pos="54" show="1" value="1" unmaskedvalue="01"/>
        </field>
      </field>
      <field name="" show="No-Operation (NOP)" size="1" pos="55" value="01">
        <field name="ip.opt.type" showname="Type: 1" size="1" pos="55" show="1" value="01">
          <field name="ip.opt.type.copy" showname="0... .... = Copy on fragmentation: No" size="1" pos="55" show="0" value="0" unmaskedvalue="01"/>
          <field name="ip.opt.type.class" showname=".00. .... = Class: Control (0)" size="1" pos="55" show="0" value="0" unmaskedvalue="01"/>
          <field name="ip.opt.type.number" showname="...0 0001 = Number: No-Operation (NOP) (1)" size="1" pos="55" show="1" value="1" unmaskedvalue="01"/>
        </field>
      </field>
      <field name="" show="Timestamps: TSval 199451, TSecr 1293433620" size="10" pos="56" value="080a00030b1b4d183b14">
        <field name="tcp.option_kind" showname="Kind: Timestamp (8)" size="1" pos="56" show="8" value="08"/>
        <field name="tcp.option_len" showname="Length: 10" size="1" pos="57" show="10" value="0a"/>
        <field name="tcp.options.timestamp.tsval" showname="Timestamp value: 199451" size="4" pos="58" show="199451" value="00030b1b"/>
        <field name="tcp.options.timestamp.tsecr" showname="Timestamp echo reply: 1293433620" size="4" pos="62" show="1293433620" value="4d183b14"/>
      </field>
    </field>
    <field name="tcp.analysis" showname="SEQ/ACK analysis" size="0" pos="34" show="" value="">
      <field name="tcp.analysis.bytes_in_flight" showname="Bytes in flight: 8" size="0" pos="34" show="8"/>
    </field>
  </proto>
  <proto name="fake-field-wrapper">
    <field name="data" value="0402000800000444">
      <field name="data.data" showname="Data: 0402000800000444" size="8" pos="66" show="04:02:00:08:00:00:04:44" value="0402000800000444"/>
      <field name="data.len" showname="Length: 8" size="0" pos="66" show="8"/>
  </field>
</proto>
</packet>

<packet>
  <proto name="geninfo" pos="0" showname="General information" size="74">
    <field name="num" pos="0" show="34" showname="Number" value="22" size="74"/>
    <field name="len" pos="0" show="74" showname="Frame Length" value="4a" size="74"/>
    <field name="caplen" pos="0" show="74" showname="Captured Length" value="4a" size="74"/>
    <field name="timestamp" pos="0" show="Feb  4, 2012 21:50:31.688983000 Pacific Standard Time" showname="Captured Time" value="1328421031.688983000" size="74"/>
  </proto>
  <proto name="frame" showname="Frame 34: 74 bytes on wire (592 bits), 74 bytes captured (592 bits)" size="74" pos="0">
    <field name="frame.encap_type" showname="Encapsulation type: Ethernet (1)" size="0" pos="0" show="1"/>
    <field name="frame.time" showname="Arrival Time: Feb  4, 2012 21:50:31.688983000 Pacific Standard Time" size="0" pos="0" show="Feb  4, 2012 21:50:31.688983000"/>
    <field name="frame.offset_shift" showname="Time shift for this packet: 0.000000000 seconds" size="0" pos="0" show="0.000000000"/>
    <field name="frame.time_epoch" showname="Epoch Time: 1328421031.688983000 seconds" size="0" pos="0" show="1328421031.688983000"/>
    <field name="frame.time_delta" showname="Time delta from previous captured frame: 0.000296000 seconds" size="0" pos="0" show="0.000296000"/>
    <field name="frame.time_delta_displayed" showname="Time delta from previous displayed frame: 0.000296000 seconds" size="0" pos="0" show="0.000296000"/>
    <field name="frame.time_relative" showname="Time since reference or first frame: 7.376400000 seconds" size="0" pos="0" show="7.376400000"/>
    <field name="frame.number" showname="Frame Number: 34" size="0" pos="0" show="34"/>
    <field name="frame.len" showname="Frame Length: 74 bytes (592 bits)" size="0" pos="0" show="74"/>
    <field name="frame.cap_len" showname="Capture Length: 74 bytes (592 bits)" size="0" pos="0" show="74"/>
    <field name="frame.marked" showname="Frame is marked: False" size="0" pos="0" show="0"/>
    <field name="frame.ignored" showname="Frame is ignored: False" size="0" pos="0" show="0"/>
    <field name="frame.protocols" showname="Protocols in frame: eth:ip:tcp:data" size="0" pos="0" show="eth:ip:tcp:data"/>
    <field name="frame.coloring_rule.name" showname="Coloring Rule Name: TCP" size="0" pos="0" show="TCP"/>
    <field name="frame.coloring_rule.string" showname="Coloring Rule String: tcp" size="0" pos="0" show="tcp"/>
  </proto>
  <proto name="eth" showname="Ethernet II, Src: HpnSuppl_f3:48:00 (00:21:f7:f3:48:00), Dst: Vmware_d3:f3:c8 (00:0c:29:d3:f3:c8)" size="14" pos="0">
    <field name="eth.dst" showname="Destination: Vmware_d3:f3:c8 (00:0c:29:d3:f3:c8)" size="6" pos="0" show="00:0c:29:d3:f3:c8" value="000c29d3f3c8">
      <field name="eth.addr" showname="Address: Vmware_d3:f3:c8 (00:0c:29:d3:f3:c8)" size="6" pos="0" show="00:0c:29:d3:f3:c8" value="000c29d3f3c8"/>
      <field name="eth.lg" showname=".... ..0. .... .... .... .... = LG bit: Globally unique address (factory default)" size="3" pos="0" show="0" value="0" unmaskedvalue="000c29"/>
      <field name="eth.ig" showname=".... ...0 .... .... .... .... = IG bit: Individual address (unicast)" size="3" pos="0" show="0" value="0" unmaskedvalue="000c29"/>
    </field>
    <field name="eth.src" showname="Source: HpnSuppl_f3:48:00 (00:21:f7:f3:48:00)" size="6" pos="6" show="00:21:f7:f3:48:00" value="0021f7f34800">
      <field name="eth.addr" showname="Address: HpnSuppl_f3:48:00 (00:21:f7:f3:48:00)" size="6" pos="6" show="00:21:f7:f3:48:00" value="0021f7f34800"/>
      <field name="eth.lg" showname=".... ..0. .... .... .... .... = LG bit: Globally unique address (factory default)" size="3" pos="6" show="0" value="0" unmaskedvalue="0021f7"/>
      <field name="eth.ig" showname=".... ...0 .... .... .... .... = IG bit: Individual address (unicast)" size="3" pos="6" show="0" value="0" unmaskedvalue="0021f7"/>
    </field>
    <field name="eth.type" showname="Type: IP (0x0800)" size="2" pos="12" show="0x0800" value="0800"/>
  </proto>
  <proto name="ip" showname="Internet Protocol Version 4, Src: 172.16.105.101 (172.16.105.101), Dst: 15.146.193.67 (15.146.193.67)" size="20" pos="14">
    <field name="ip.version" showname="Version: 4" size="1" pos="14" show="4" value="45"/>
    <field name="ip.hdr_len" showname="Header length: 20 bytes" size="1" pos="14" show="20" value="45"/>
    <field name="ip.dsfield" showname="Differentiated Services Field: 0x00 (DSCP 0x00: Default; ECN: 0x00: Not-ECT (Not ECN-Capable Transport))" size="1" pos="15" show="0" value="00">
      <field name="ip.dsfield.dscp" showname="0000 00.. = Differentiated Services Codepoint: Default (0x00)" size="1" pos="15" show="0x00" value="0" unmaskedvalue="00"/>
      <field name="ip.dsfield.ecn" showname=".... ..00 = Explicit Congestion Notification: Not-ECT (Not ECN-Capable Transport) (0x00)" size="1" pos="15" show="0x00" value="0" unmaskedvalue="00"/>
    </field>
    <field name="ip.len" showname="Total Length: 60" size="2" pos="16" show="60" value="003c"/>
    <field name="ip.id" showname="Identification: 0x7a7e (31358)" size="2" pos="18" show="0x7a7e" value="7a7e"/>
    <field name="ip.flags" showname="Flags: 0x02 (Don&apos;t Fragment)" size="1" pos="20" show="0x02" value="40">
      <field name="ip.flags.rb" showname="0... .... = Reserved bit: Not set" size="1" pos="20" show="0" value="40"/>
      <field name="ip.flags.df" showname=".1.. .... = Don&apos;t fragment: Set" size="1" pos="20" show="1" value="40"/>
      <field name="ip.flags.mf" showname="..0. .... = More fragments: Not set" size="1" pos="20" show="0" value="40"/>
    </field>
    <field name="ip.frag_offset" showname="Fragment offset: 0" size="2" pos="20" show="0" value="4000"/>
    <field name="ip.ttl" showname="Time to live: 61" size="1" pos="22" show="61" value="3d"/>
    <field name="ip.proto" showname="Protocol: TCP (6)" size="1" pos="23" show="6" value="06"/>
    <field name="ip.checksum" showname="Header checksum: 0xdcf2 [correct]" size="2" pos="24" show="0xdcf2" value="dcf2">
      <field name="ip.checksum_good" showname="Good: True" size="2" pos="24" show="1" value="dcf2"/>
      <field name="ip.checksum_bad" showname="Bad: False" size="2" pos="24" show="0" value="dcf2"/>
    </field>
    <field name="ip.src" showname="Source: 172.16.105.101 (172.16.105.101)" size="4" pos="26" show="172.16.105.101" value="ac106965"/>
    <field name="ip.addr" showname="Source or Destination Address: 172.16.105.101 (172.16.105.101)" hide="yes" size="4" pos="26" show="172.16.105.101" value="ac106965"/>
    <field name="ip.src_host" showname="Source Host: 172.16.105.101" hide="yes" size="4" pos="26" show="172.16.105.101" value="ac106965"/>
    <field name="ip.host" showname="Source or Destination Host: 172.16.105.101" hide="yes" size="4" pos="26" show="172.16.105.101" value="ac106965"/>
    <field name="ip.dst" showname="Destination: 15.146.193.67 (15.146.193.67)" size="4" pos="30" show="15.146.193.67" value="0f92c143"/>
    <field name="ip.addr" showname="Source or Destination Address: 15.146.193.67 (15.146.193.67)" hide="yes" size="4" pos="30" show="15.146.193.67" value="0f92c143"/>
    <field name="ip.dst_host" showname="Destination Host: 15.146.193.67" hide="yes" size="4" pos="30" show="15.146.193.67" value="0f92c143"/>
    <field name="ip.host" showname="Source or Destination Host: 15.146.193.67" hide="yes" size="4" pos="30" show="15.146.193.67" value="0f92c143"/>
    <field name="" show="Source GeoIP: Unknown" size="4" pos="26" value="ac106965"/>
    <field name="" show="Destination GeoIP: Unknown" size="4" pos="30" value="0f92c143"/>
  </proto>
  <proto name="tcp" showname="Transmission Control Protocol, Src Port: 56548 (56548), Dst Port: 6633 (6633), Seq: 1889, Ack: 501, Len: 8" size="32" pos="34">
    <field name="tcp.srcport" showname="Source port: 56548 (56548)" size="2" pos="34" show="56548" value="dce4"/>
    <field name="tcp.dstport" showname="Destination port: 6633 (6633)" size="2" pos="36" show="6633" value="19e9"/>
    <field name="tcp.port" showname="Source or Destination Port: 56548" hide="yes" size="2" pos="34" show="56548" value="dce4"/>
    <field name="tcp.port" showname="Source or Destination Port: 6633" hide="yes" size="2" pos="36" show="6633" value="19e9"/>
    <field name="tcp.stream" showname="Stream index: 0" size="0" pos="34" show="0"/>
    <field name="tcp.len" showname="TCP Segment Len: 8" hide="yes" size="1" pos="46" show="8" value="80"/>
    <field name="tcp.seq" showname="Sequence number: 1889    (relative sequence number)" size="4" pos="38" show="1889" value="2b87a68f"/>
    <field name="tcp.nxtseq" showname="Next sequence number: 1897    (relative sequence number)" size="0" pos="34" show="1897"/>
    <field name="tcp.ack" showname="Acknowledgment number: 501    (relative ack number)" size="4" pos="42" show="501" value="9d90e4c6"/>
    <field name="tcp.hdr_len" showname="Header length: 32 bytes" size="1" pos="46" show="32" value="80"/>
    <field name="tcp.flags" showname="Flags: 0x018 (PSH, ACK)" size="2" pos="46" show="0x0018" value="18" unmaskedvalue="8018">
      <field name="tcp.flags.res" showname="000. .... .... = Reserved: Not set" size="1" pos="46" show="0" value="0" unmaskedvalue="80"/>
      <field name="tcp.flags.ns" showname="...0 .... .... = Nonce: Not set" size="1" pos="46" show="0" value="0" unmaskedvalue="80"/>
      <field name="tcp.flags.cwr" showname=".... 0... .... = Congestion Window Reduced (CWR): Not set" size="1" pos="47" show="0" value="0" unmaskedvalue="18"/>
      <field name="tcp.flags.ecn" showname=".... .0.. .... = ECN-Echo: Not set" size="1" pos="47" show="0" value="0" unmaskedvalue="18"/>
      <field name="tcp.flags.urg" showname=".... ..0. .... = Urgent: Not set" size="1" pos="47" show="0" value="0" unmaskedvalue="18"/>
      <field name="tcp.flags.ack" showname=".... ...1 .... = Acknowledgment: Set" size="1" pos="47" show="1" value="1" unmaskedvalue="18"/>
      <field name="tcp.flags.push" showname=".... .... 1... = Push: Set" size="1" pos="47" show="1" value="1" unmaskedvalue="18"/>
      <field name="tcp.flags.reset" showname=".... .... .0.. = Reset: Not set" size="1" pos="47" show="0" value="0" unmaskedvalue="18"/>
      <field name="tcp.flags.syn" showname=".... .... ..0. = Syn: Not set" size="1" pos="47" show="0" value="0" unmaskedvalue="18"/>
      <field name="tcp.flags.fin" showname=".... .... ...0 = Fin: Not set" size="1" pos="47" show="0" value="0" unmaskedvalue="18"/>
    </field>
    <field name="tcp.window_size_value" showname="Window size value: 33054" size="2" pos="48" show="33054" value="811e"/>
    <field name="tcp.window_size" showname="Calculated window size: 66108" size="2" pos="48" show="66108" value="811e"/>
    <field name="tcp.window_size_scalefactor" showname="Window size scaling factor: 2" size="2" pos="48" show="2" value="811e"/>
    <field name="tcp.checksum" showname="Checksum: 0x1479 [validation disabled]" size="2" pos="50" show="0x1479" value="1479">
      <field name="tcp.checksum_good" showname="Good Checksum: False" size="2" pos="50" show="0" value="1479"/>
      <field name="tcp.checksum_bad" showname="Bad Checksum: False" size="2" pos="50" show="0" value="1479"/>
    </field>
    <field name="tcp.options" showname="Options: (12 bytes), No-Operation (NOP), No-Operation (NOP), Timestamps" size="12" pos="54" show="01:01:08:0a:4d:18:4f:0a:00:03:0b:1b" value="0101080a4d184f0a00030b1b">
      <field name="" show="No-Operation (NOP)" size="1" pos="54" value="01">
        <field name="ip.opt.type" showname="Type: 1" size="1" pos="54" show="1" value="01">
          <field name="ip.opt.type.copy" showname="0... .... = Copy on fragmentation: No" size="1" pos="54" show="0" value="0" unmaskedvalue="01"/>
          <field name="ip.opt.type.class" showname=".00. .... = Class: Control (0)" size="1" pos="54" show="0" value="0" unmaskedvalue="01"/>
          <field name="ip.opt.type.number" showname="...0 0001 = Number: No-Operation (NOP) (1)" size="1" pos="54" show="1" value="1" unmaskedvalue="01"/>
        </field>
      </field>
      <field name="" show="No-Operation (NOP)" size="1" pos="55" value="01">
        <field name="ip.opt.type" showname="Type: 1" size="1" pos="55" show="1" value="01">
          <field name="ip.opt.type.copy" showname="0... .... = Copy on fragmentation: No" size="1" pos="55" show="0" value="0" unmaskedvalue="01"/>
          <field name="ip.opt.type.class" showname=".00. .... = Class: Control (0)" size="1" pos="55" show="0" value="0" unmaskedvalue="01"/>
          <field name="ip.opt.type.number" showname="...0 0001 = Number: No-Operation (NOP) (1)" size="1" pos="55" show="1" value="1" unmaskedvalue="01"/>
        </field>
      </field>
      <field name="" show="Timestamps: TSval 1293438730, TSecr 199451" size="10" pos="56" value="080a4d184f0a00030b1b">
        <field name="tcp.option_kind" showname="Kind: Timestamp (8)" size="1" pos="56" show="8" value="08"/>
        <field name="tcp.option_len" showname="Length: 10" size="1" pos="57" show="10" value="0a"/>
        <field name="tcp.options.timestamp.tsval" showname="Timestamp value: 1293438730" size="4" pos="58" show="1293438730" value="4d184f0a"/>
        <field name="tcp.options.timestamp.tsecr" showname="Timestamp echo reply: 199451" size="4" pos="62" show="199451" value="00030b1b"/>
      </field>
    </field>
    <field name="tcp.analysis" showname="SEQ/ACK analysis" size="0" pos="34" show="" value="">
      <field name="tcp.analysis.acks_frame" showname="This is an ACK to the segment in frame: 32" size="0" pos="34" show="32"/>
      <field name="tcp.analysis.ack_rtt" showname="The RTT to ACK the segment was: 0.001734000 seconds" size="0" pos="34" show="0.001734000"/>
      <field name="tcp.analysis.bytes_in_flight" showname="Bytes in flight: 8" size="0" pos="34" show="8"/>
    </field>
  </proto>
  <proto name="fake-field-wrapper">
    <field name="data" value="0403000800000443">
      <field name="data.data" showname="Data: 0403000800000443" size="8" pos="66" show="04:03:00:08:00:00:04:43" value="0403000800000443"/>
      <field name="data.len" showname="Length: 8" size="0" pos="66" show="8"/>
  </field>
</proto>
</packet>

<packet>
  <proto name="geninfo" pos="0" showname="General information" size="74">
    <field name="num" pos="0" show="35" showname="Number" value="23" size="74"/>
    <field name="len" pos="0" show="74" showname="Frame Length" value="4a" size="74"/>
    <field name="caplen" pos="0" show="74" showname="Captured Length" value="4a" size="74"/>
    <field name="timestamp" pos="0" show="Feb  4, 2012 21:50:31.689706000 Pacific Standard Time" showname="Captured Time" value="1328421031.689706000" size="74"/>
  </proto>
  <proto name="frame" showname="Frame 35: 74 bytes on wire (592 bits), 74 bytes captured (592 bits)" size="74" pos="0">
    <field name="frame.encap_type" showname="Encapsulation type: Ethernet (1)" size="0" pos="0" show="1"/>
    <field name="frame.time" showname="Arrival Time: Feb  4, 2012 21:50:31.689706000 Pacific Standard Time" size="0" pos="0" show="Feb  4, 2012 21:50:31.689706000"/>
    <field name="frame.offset_shift" showname="Time shift for this packet: 0.000000000 seconds" size="0" pos="0" show="0.000000000"/>
    <field name="frame.time_epoch" showname="Epoch Time: 1328421031.689706000 seconds" size="0" pos="0" show="1328421031.689706000"/>
    <field name="frame.time_delta" showname="Time delta from previous captured frame: 0.000723000 seconds" size="0" pos="0" show="0.000723000"/>
    <field name="frame.time_delta_displayed" showname="Time delta from previous displayed frame: 0.000723000 seconds" size="0" pos="0" show="0.000723000"/>
    <field name="frame.time_relative" showname="Time since reference or first frame: 7.377123000 seconds" size="0" pos="0" show="7.377123000"/>
    <field name="frame.number" showname="Frame Number: 35" size="0" pos="0" show="35"/>
    <field name="frame.len" showname="Frame Length: 74 bytes (592 bits)" size="0" pos="0" show="74"/>
    <field name="frame.cap_len" showname="Capture Length: 74 bytes (592 bits)" size="0" pos="0" show="74"/>
    <field name="frame.marked" showname="Frame is marked: False" size="0" pos="0" show="0"/>
    <field name="frame.ignored" showname="Frame is ignored: False" size="0" pos="0" show="0"/>
    <field name="frame.protocols" showname="Protocols in frame: eth:ip:tcp:data" size="0" pos="0" show="eth:ip:tcp:data"/>
    <field name="frame.coloring_rule.name" showname="Coloring Rule Name: TCP" size="0" pos="0" show="TCP"/>
    <field name="frame.coloring_rule.string" showname="Coloring Rule String: tcp" size="0" pos="0" show="tcp"/>
  </proto>
  <proto name="eth" showname="Ethernet II, Src: HpnSuppl_f3:48:00 (00:21:f7:f3:48:00), Dst: Vmware_d3:f3:c8 (00:0c:29:d3:f3:c8)" size="14" pos="0">
    <field name="eth.dst" showname="Destination: Vmware_d3:f3:c8 (00:0c:29:d3:f3:c8)" size="6" pos="0" show="00:0c:29:d3:f3:c8" value="000c29d3f3c8">
      <field name="eth.addr" showname="Address: Vmware_d3:f3:c8 (00:0c:29:d3:f3:c8)" size="6" pos="0" show="00:0c:29:d3:f3:c8" value="000c29d3f3c8"/>
      <field name="eth.lg" showname=".... ..0. .... .... .... .... = LG bit: Globally unique address (factory default)" size="3" pos="0" show="0" value="0" unmaskedvalue="000c29"/>
      <field name="eth.ig" showname=".... ...0 .... .... .... .... = IG bit: Individual address (unicast)" size="3" pos="0" show="0" value="0" unmaskedvalue="000c29"/>
    </field>
    <field name="eth.src" showname="Source: HpnSuppl_f3:48:00 (00:21:f7:f3:48:00)" size="6" pos="6" show="00:21:f7:f3:48:00" value="0021f7f34800">
      <field name="eth.addr" showname="Address: HpnSuppl_f3:48:00 (00:21:f7:f3:48:00)" size="6" pos="6" show="00:21:f7:f3:48:00" value="0021f7f34800"/>
      <field name="eth.lg" showname=".... ..0. .... .... .... .... = LG bit: Globally unique address (factory default)" size="3" pos="6" show="0" value="0" unmaskedvalue="0021f7"/>
      <field name="eth.ig" showname=".... ...0 .... .... .... .... = IG bit: Individual address (unicast)" size="3" pos="6" show="0" value="0" unmaskedvalue="0021f7"/>
    </field>
    <field name="eth.type" showname="Type: IP (0x0800)" size="2" pos="12" show="0x0800" value="0800"/>
  </proto>
  <proto name="ip" showname="Internet Protocol Version 4, Src: 172.16.105.101 (172.16.105.101), Dst: 15.146.193.67 (15.146.193.67)" size="20" pos="14">
    <field name="ip.version" showname="Version: 4" size="1" pos="14" show="4" value="45"/>
    <field name="ip.hdr_len" showname="Header length: 20 bytes" size="1" pos="14" show="20" value="45"/>
    <field name="ip.dsfield" showname="Differentiated Services Field: 0x00 (DSCP 0x00: Default; ECN: 0x00: Not-ECT (Not ECN-Capable Transport))" size="1" pos="15" show="0" value="00">
      <field name="ip.dsfield.dscp" showname="0000 00.. = Differentiated Services Codepoint: Default (0x00)" size="1" pos="15" show="0x00" value="0" unmaskedvalue="00"/>
      <field name="ip.dsfield.ecn" showname=".... ..00 = Explicit Congestion Notification: Not-ECT (Not ECN-Capable Transport) (0x00)" size="1" pos="15" show="0x00" value="0" unmaskedvalue="00"/>
    </field>
    <field name="ip.len" showname="Total Length: 60" size="2" pos="16" show="60" value="003c"/>
    <field name="ip.id" showname="Identification: 0x7a7f (31359)" size="2" pos="18" show="0x7a7f" value="7a7f"/>
    <field name="ip.flags" showname="Flags: 0x02 (Don&apos;t Fragment)" size="1" pos="20" show="0x02" value="40">
      <field name="ip.flags.rb" showname="0... .... = Reserved bit: Not set" size="1" pos="20" show="0" value="40"/>
      <field name="ip.flags.df" showname=".1.. .... = Don&apos;t fragment: Set" size="1" pos="20" show="1" value="40"/>
      <field name="ip.flags.mf" showname="..0. .... = More fragments: Not set" size="1" pos="20" show="0" value="40"/>
    </field>
    <field name="ip.frag_offset" showname="Fragment offset: 0" size="2" pos="20" show="0" value="4000"/>
    <field name="ip.ttl" showname="Time to live: 61" size="1" pos="22" show="61" value="3d"/>
    <field name="ip.proto" showname="Protocol: TCP (6)" size="1" pos="23" show="6" value="06"/>
    <field name="ip.checksum" showname="Header checksum: 0xdcf1 [correct]" size="2" pos="24" show="0xdcf1" value="dcf1">
      <field name="ip.checksum_good" showname="Good: True" size="2" pos="24" show="1" value="dcf1"/>
      <field name="ip.checksum_bad" showname="Bad: False" size="2" pos="24" show="0" value="dcf1"/>
    </field>
    <field name="ip.src" showname="Source: 172.16.105.101 (172.16.105.101)" size="4" pos="26" show="172.16.105.101" value="ac106965"/>
    <field name="ip.addr" showname="Source or Destination Address: 172.16.105.101 (172.16.105.101)" hide="yes" size="4" pos="26" show="172.16.105.101" value="ac106965"/>
    <field name="ip.src_host" showname="Source Host: 172.16.105.101" hide="yes" size="4" pos="26" show="172.16.105.101" value="ac106965"/>
    <field name="ip.host" showname="Source or Destination Host: 172.16.105.101" hide="yes" size="4" pos="26" show="172.16.105.101" value="ac106965"/>
    <field name="ip.dst" showname="Destination: 15.146.193.67 (15.146.193.67)" size="4" pos="30" show="15.146.193.67" value="0f92c143"/>
    <field name="ip.addr" showname="Source or Destination Address: 15.146.193.67 (15.146.193.67)" hide="yes" size="4" pos="30" show="15.146.193.67" value="0f92c143"/>
    <field name="ip.dst_host" showname="Destination Host: 15.146.193.67" hide="yes" size="4" pos="30" show="15.146.193.67" value="0f92c143"/>
    <field name="ip.host" showname="Source or Destination Host: 15.146.193.67" hide="yes" size="4" pos="30" show="15.146.193.67" value="0f92c143"/>
    <field name="" show="Source GeoIP: Unknown" size="4" pos="26" value="ac106965"/>
    <field name="" show="Destination GeoIP: Unknown" size="4" pos="30" value="0f92c143"/>
  </proto>
  <proto name="tcp" showname="Transmission Control Protocol, Src Port: 50370 (50370), Dst Port: 6633 (6633), Seq: 41, Ack: 33, Len: 8" size="32" pos="34">
    <field name="tcp.srcport" showname="Source port: 50370 (50370)" size="2" pos="34" show="50370" value="c4c2"/>
    <field name="tcp.dstport" showname="Destination port: 6633 (6633)" size="2" pos="36" show="6633" value="19e9"/>
    <field name="tcp.port" showname="Source or Destination Port: 50370" hide="yes" size="2" pos="34" show="50370" value="c4c2"/>
    <field name="tcp.port" showname="Source or Destination Port: 6633" hide="yes" size="2" pos="36" show="6633" value="19e9"/>
    <field name="tcp.stream" showname="Stream index: 1" size="0" pos="34" show="1"/>
    <field name="tcp.len" showname="TCP Segment Len: 8" hide="yes" size="1" pos="46" show="8" value="80"/>
    <field name="tcp.seq" showname="Sequence number: 41    (relative sequence number)" size="4" pos="38" show="41" value="2b8ff5cf"/>
    <field name="tcp.nxtseq" showname="Next sequence number: 49    (relative sequence number)" size="0" pos="34" show="49"/>
    <field name="tcp.ack" showname="Acknowledgment number: 33    (relative ack number)" size="4" pos="42" show="33" value="13b7620d"/>
    <field name="tcp.hdr_len" showname="Header length: 32 bytes" size="1" pos="46" show="32" value="80"/>
    <field name="tcp.flags" showname="Flags: 0x018 (PSH, ACK)" size="2" pos="46" show="0x0018" value="18" unmaskedvalue="8018">
      <field name="tcp.flags.res" showname="000. .... .... = Reserved: Not set" size="1" pos="46" show="0" value="0" unmaskedvalue="80"/>
      <field name="tcp.flags.ns" showname="...0 .... .... = Nonce: Not set" size="1" pos="46" show="0" value="0" unmaskedvalue="80"/>
      <field name="tcp.flags.cwr" showname=".... 0... .... = Congestion Window Reduced (CWR): Not set" size="1" pos="47" show="0" value="0" unmaskedvalue="18"/>
      <field name="tcp.flags.ecn" showname=".... .0.. .... = ECN-Echo: Not set" size="1" pos="47" show="0" value="0" unmaskedvalue="18"/>
      <field name="tcp.flags.urg" showname=".... ..0. .... = Urgent: Not set" size="1" pos="47" show="0" value="0" unmaskedvalue="18"/>
      <field name="tcp.flags.ack" showname=".... ...1 .... = Acknowledgment: Set" size="1" pos="47" show="1" value="1" unmaskedvalue="18"/>
      <field name="tcp.flags.push" showname=".... .... 1... = Push: Set" size="1" pos="47" show="1" value="1" unmaskedvalue="18"/>
      <field name="tcp.flags.reset" showname=".... .... .0.. = Reset: Not set" size="1" pos="47" show="0" value="0" unmaskedvalue="18"/>
      <field name="tcp.flags.syn" showname=".... .... ..0. = Syn: Not set" size="1" pos="47" show="0" value="0" unmaskedvalue="18"/>
      <field name="tcp.flags.fin" showname=".... .... ...0 = Fin: Not set" size="1" pos="47" show="0" value="0" unmaskedvalue="18"/>
    </field>
    <field name="tcp.window_size_value" showname="Window size value: 33288" size="2" pos="48" show="33288" value="8208"/>
    <field name="tcp.window_size" showname="Calculated window size: 66576" size="2" pos="48" show="66576" value="8208"/>
    <field name="tcp.window_size_scalefactor" showname="Window size scaling factor: 2" size="2" pos="48" show="2" value="8208"/>
    <field name="tcp.checksum" showname="Checksum: 0xe8f0 [validation disabled]" size="2" pos="50" show="0xe8f0" value="e8f0">
      <field name="tcp.checksum_good" showname="Good Checksum: False" size="2" pos="50" show="0" value="e8f0"/>
      <field name="tcp.checksum_bad" showname="Bad Checksum: False" size="2" pos="50" show="0" value="e8f0"/>
    </field>
    <field name="tcp.options" showname="Options: (12 bytes), No-Operation (NOP), No-Operation (NOP), Timestamps" size="12" pos="54" show="01:01:08:0a:4d:18:4f:14:00:03:0b:1b" value="0101080a4d184f1400030b1b">
      <field name="" show="No-Operation (NOP)" size="1" pos="54" value="01">
        <field name="ip.opt.type" showname="Type: 1" size="1" pos="54" show="1" value="01">
          <field name="ip.opt.type.copy" showname="0... .... = Copy on fragmentation: No" size="1" pos="54" show="0" value="0" unmaskedvalue="01"/>
          <field name="ip.opt.type.class" showname=".00. .... = Class: Control (0)" size="1" pos="54" show="0" value="0" unmaskedvalue="01"/>
          <field name="ip.opt.type.number" showname="...0 0001 = Number: No-Operation (NOP) (1)" size="1" pos="54" show="1" value="1" unmaskedvalue="01"/>
        </field>
      </field>
      <field name="" show="No-Operation (NOP)" size="1" pos="55" value="01">
        <field name="ip.opt.type" showname="Type: 1" size="1" pos="55" show="1" value="01">
          <field name="ip.opt.type.copy" showname="0... .... = Copy on fragmentation: No" size="1" pos="55" show="0" value="0" unmaskedvalue="01"/>
          <field name="ip.opt.type.class" showname=".00. .... = Class: Control (0)" size="1" pos="55" show="0" value="0" unmaskedvalue="01"/>
          <field name="ip.opt.type.number" showname="...0 0001 = Number: No-Operation (NOP) (1)" size="1" pos="55" show="1" value="1" unmaskedvalue="01"/>
        </field>
      </field>
      <field name="" show="Timestamps: TSval 1293438740, TSecr 199451" size="10" pos="56" value="080a4d184f1400030b1b">
        <field name="tcp.option_kind" showname="Kind: Timestamp (8)" size="1" pos="56" show="8" value="08"/>
        <field name="tcp.option_len" showname="Length: 10" size="1" pos="57" show="10" value="0a"/>
        <field name="tcp.options.timestamp.tsval" showname="Timestamp value: 1293438740" size="4" pos="58" show="1293438740" value="4d184f14"/>
        <field name="tcp.options.timestamp.tsecr" showname="Timestamp echo reply: 199451" size="4" pos="62" show="199451" value="00030b1b"/>
      </field>
    </field>
    <field name="tcp.analysis" showname="SEQ/ACK analysis" size="0" pos="34" show="" value="">
      <field name="tcp.analysis.acks_frame" showname="This is an ACK to the segment in frame: 33" size="0" pos="34" show="33"/>
      <field name="tcp.analysis.ack_rtt" showname="The RTT to ACK the segment was: 0.001019000 seconds" size="0" pos="34" show="0.001019000"/>
      <field name="tcp.analysis.bytes_in_flight" showname="Bytes in flight: 8" size="0" pos="34" show="8"/>
    </field>
  </proto>
  <proto name="fake-field-wrapper">
    <field name="data" value="0403000800000444">
      <field name="data.data" showname="Data: 0403000800000444" size="8" pos="66" show="04:03:00:08:00:00:04:44" value="0403000800000444"/>
      <field name="data.len" showname="Length: 8" size="0" pos="66" show="8"/>
  </field>
</proto>
</packet>

</pdml>
