Certificate:
    Data:
        Version: 1 (0x0)
        Serial Number: 3 (0x3)
    Signature Algorithm: md5WithRSAEncryption
        Issuer: C=US, ST=CA, O=Open vSwitch, OU=controllerca, CN=OVS controllerca CA Certificate (2012 Nov 30 22:32:42)
        Validity
            Not Before: May 27 07:25:06 2014 GMT
            Not After : May 24 07:25:06 2024 GMT
        Subject: C=US, ST=CA, O=Open vSwitch, OU=controllerca, CN=OVS controllerca CA Certificate (2012 Nov 30 22:32:42)
        Subject Public Key Info:
            Public Key Algorithm: rsaEncryption
                Public-Key: (2048 bit)
                Modulus:
                    00:cd:ee:e0:69:c0:bb:06:76:35:dd:7d:cd:d2:1e:
                    7a:eb:e3:39:c9:fb:e4:b1:63:2c:4b:29:83:88:b3:
                    a4:b3:96:de:cd:43:1e:1c:6c:82:88:23:6a:e6:fc:
                    1b:69:68:a0:89:00:2f:76:2d:66:60:cf:6a:aa:15:
                    22:3d:26:f1:36:c2:a4:af:70:ec:22:eb:ba:fe:43:
                    24:42:b1:45:08:ce:51:12:14:03:55:27:74:ed:1b:
                    2a:b9:21:ae:3c:a7:4d:63:92:7d:ed:d6:e2:e2:91:
                    c7:55:30:0b:6f:26:d2:78:67:c2:01:fc:89:f8:20:
                    0f:e8:8b:3b:c0:41:bf:de:9f:a6:d2:3c:f2:25:71:
                    e1:89:81:a8:93:41:78:41:b8:20:df:77:39:39:a6:
                    4a:5b:72:b8:ce:89:ad:2b:37:94:48:e0:94:bc:d0:
                    7b:08:6a:6f:bb:16:33:03:11:4a:bb:17:19:fa:41:
                    19:53:74:62:72:59:ac:b9:1b:81:7c:30:15:4e:e5:
                    34:fd:fa:12:da:52:dc:f0:b9:4a:23:3c:69:7b:9d:
                    f3:62:76:7b:36:0a:3d:7e:77:d2:61:7e:84:20:6f:
                    57:ad:9b:5a:1b:53:7b:43:fa:8f:68:d9:cb:a3:c2:
                    7f:d8:ea:70:40:25:e0:de:2f:9c:dd:df:bd:d1:73:
                    be:8d
                Exponent: 65537 (0x10001)
    Signature Algorithm: md5WithRSAEncryption
         89:cd:f5:bc:e1:c8:ff:d8:9e:12:6d:59:2f:20:90:a4:bc:cb:
         cd:13:2c:c0:de:24:81:6b:6a:54:32:6b:bd:2b:c1:1e:3b:b5:
         d5:25:49:14:73:54:5b:93:0b:31:30:aa:10:2d:aa:be:41:4e:
         ad:b9:1d:19:7d:1a:4b:a6:8b:d7:0b:47:6f:c5:b5:ca:e2:33:
         32:d0:c4:25:b3:b8:ee:f8:e6:34:0b:2b:fc:db:52:62:8b:42:
         00:d3:ba:10:9c:5b:41:c7:59:22:74:58:37:b7:08:7d:fc:ee:
         8a:86:2e:2c:95:d6:b1:26:08:72:a2:db:07:a0:ea:e9:af:db:
         78:64:c0:03:4e:70:b1:c7:42:b8:6b:80:af:0c:82:2a:f8:b4:
         67:34:d2:66:d8:20:66:8d:34:e6:1b:6a:de:94:58:2a:a5:dd:
         dd:1e:66:e9:e7:8b:b5:d4:73:03:97:05:9e:f7:ce:f7:f8:fe:
         cd:d0:b7:f4:57:0b:08:3b:98:99:6d:8d:00:46:fa:c5:9c:a4:
         42:ad:9c:d1:86:43:70:ae:2f:b2:91:4c:87:96:7e:ff:03:45:
         15:3f:99:1a:44:33:3c:ea:bd:6f:76:8c:09:2a:3b:13:38:a7:
         95:2b:ef:88:ed:f0:98:dc:17:0c:6f:4a:1e:11:03:17:9e:ae:
         af:b4:d0:11
-----BEGIN CERTIFICATE-----
MIIDiDCCAnACAQMwDQYJKoZIhvcNAQEEBQAwgYkxCzAJBgNVBAYTAlVTMQswCQYD
VQQIEwJDQTEVMBMGA1UEChMMT3BlbiB2U3dpdGNoMRUwEwYDVQQLEwxjb250cm9s
bGVyY2ExPzA9BgNVBAMTNk9WUyBjb250cm9sbGVyY2EgQ0EgQ2VydGlmaWNhdGUg
KDIwMTIgTm92IDMwIDIyOjMyOjQyKTAeFw0xNDA1MjcwNzI1MDZaFw0yNDA1MjQw
NzI1MDZaMIGJMQswCQYDVQQGEwJVUzELMAkGA1UECBMCQ0ExFTATBgNVBAoTDE9w
ZW4gdlN3aXRjaDEVMBMGA1UECxMMY29udHJvbGxlcmNhMT8wPQYDVQQDEzZPVlMg
Y29udHJvbGxlcmNhIENBIENlcnRpZmljYXRlICgyMDEyIE5vdiAzMCAyMjozMjo0
MikwggEiMA0GCSqGSIb3DQEBAQUAA4IBDwAwggEKAoIBAQDN7uBpwLsGdjXdfc3S
Hnrr4znJ++SxYyxLKYOIs6Szlt7NQx4cbIKII2rm/BtpaKCJAC92LWZgz2qqFSI9
JvE2wqSvcOwi67r+QyRCsUUIzlESFANVJ3TtGyq5Ia48p01jkn3t1uLikcdVMAtv
JtJ4Z8IB/In4IA/oizvAQb/en6bSPPIlceGJgaiTQXhBuCDfdzk5pkpbcrjOia0r
N5RI4JS80HsIam+7FjMDEUq7Fxn6QRlTdGJyWay5G4F8MBVO5TT9+hLaUtzwuUoj
PGl7nfNidns2Cj1+d9JhfoQgb1etm1obU3tD+o9o2cujwn/Y6nBAJeDeL5zd373R
c76NAgMBAAEwDQYJKoZIhvcNAQEEBQADggEBAInN9bzhyP/YnhJtWS8gkKS8y80T
LMDeJIFralQya70rwR47tdUlSRRzVFuTCzEwqhAtqr5BTq25HRl9Gkumi9cLR2/F
tcriMzLQxCWzuO745jQLK/zbUmKLQgDTuhCcW0HHWSJ0WDe3CH387oqGLiyV1rEm
CHKi2weg6umv23hkwANOcLHHQrhrgK8Mgir4tGc00mbYIGaNNOYbat6UWCql3d0e
Zunni7XUcwOXBZ73zvf4/s3Qt/RXCwg7mJltjQBG+sWcpEKtnNGGQ3CuL7KRTIeW
fv8DRRU/mRpEMzzqvW92jAkqOxM4p5Ur74jt8JjcFwxvSh4RAxeerq+00BE=
-----END CERTIFICATE-----
