Certificate:
    Data:
        Version: 1 (0x0)
        Serial Number: 4 (0x4)
    Signature Algorithm: md5WithRSAEncryption
        Issuer: C=US, ST=CA, O=Open vSwitch, OU=switchca, CN=OVS switchca CA Certificate (2012 Nov 30 22:32:42)
        Validity
            Not Before: Jun  9 10:53:04 2014 GMT
            Not After : Jun  9 10:53:04 2015 GMT
        Subject: C=US, ST=CA, O=Open vSwitch, OU=Open vSwitch certifier, CN=switch id:f7a54496-3eb7-41a2-b7a5-a635390c8510
        Subject Public Key Info:
            Public Key Algorithm: rsaEncryption
                Public-Key: (2048 bit)
                Modulus:
                    00:cd:51:74:8c:41:7b:ca:aa:54:b9:39:db:61:49:
                    1e:86:a1:e3:ca:61:0c:e4:ec:bb:fd:c7:6c:96:32:
                    05:f1:3e:55:60:5d:0a:22:21:dd:fd:07:dd:9e:be:
                    32:e8:a0:46:88:5a:7a:ad:0e:32:05:58:60:e0:53:
                    41:e2:ad:9d:ac:a7:da:98:04:2f:f9:ae:f3:1f:db:
                    2f:4f:e3:46:d3:ed:8e:86:fb:42:06:75:e7:10:f9:
                    10:f1:80:00:cd:17:d1:2b:74:5e:90:1e:48:78:46:
                    5b:c1:8e:01:a5:8c:8b:08:fa:1d:c5:de:ae:e1:4d:
                    47:c4:48:fa:4f:2a:83:c8:39:c8:1e:ac:9d:38:bf:
                    46:ec:6f:96:e5:6f:3d:3e:75:e0:cf:58:bc:e6:9e:
                    48:9c:e4:e6:bd:72:94:64:27:6c:ff:b6:2e:1a:62:
                    d5:b6:44:72:f7:d6:72:32:d1:e5:68:43:c2:15:9f:
                    47:85:44:98:5c:18:35:4c:32:6a:b5:03:e6:a3:90:
                    6f:5c:f6:33:37:a3:2c:ac:fd:f6:5a:eb:46:05:6e:
                    f3:13:0c:74:b1:3f:c6:31:68:cb:75:5c:f7:f9:c8:
                    00:42:64:1b:d7:31:0b:5e:5c:8e:41:a1:1b:f1:af:
                    c2:d8:44:5a:5c:fa:a7:ad:d2:e9:ee:48:57:f2:bc:
                    c5:a7
                Exponent: 65537 (0x10001)
    Signature Algorithm: md5WithRSAEncryption
         6f:23:ad:3f:62:3c:38:f5:02:8f:f3:e4:09:8b:79:ad:32:48:
         e8:0d:01:13:11:d3:94:c7:9a:1b:4b:8c:f4:98:c1:97:e2:9b:
         c6:3c:94:d4:52:e6:6d:a6:c8:72:b5:14:ce:d1:03:15:f8:88:
         10:34:36:7e:13:71:61:f5:73:84:e9:58:7a:dc:ae:0b:a8:b6:
         d7:73:bb:f1:62:8c:5b:45:58:96:1f:fe:23:5a:fb:ce:d5:10:
         a0:ac:1a:0e:ab:12:d3:45:c8:61:93:82:8c:b9:87:d7:9c:95:
         47:2f:d0:ce:5c:35:65:38:48:b3:67:a2:40:dd:55:45:db:7d:
         c8:15:d9:cf:80:b6:57:2b:9d:07:c4:96:2a:ee:81:9d:4a:06:
         b5:ef:89:13:4b:66:b0:03:23:82:5e:bb:86:65:07:64:49:6c:
         73:7b:38:21:5f:c5:97:e8:97:a7:f1:3d:50:83:c9:7e:c1:cf:
         90:88:a6:31:93:2e:e1:f1:00:e9:f7:9d:02:c4:0b:ce:24:68:
         be:b9:6c:48:67:02:f1:d4:11:b0:c3:f8:4d:ee:a5:79:73:95:
         09:dd:4c:c6:ac:57:6e:ef:04:c5:65:af:36:e1:79:29:be:a6:
         06:29:7b:b8:fe:13:94:f6:43:30:3b:7e:67:50:06:7a:69:00:
         8d:04:6c:0e
-----BEGIN CERTIFICATE-----
MIIDgjCCAmoCAQQwDQYJKoZIhvcNAQEEBQAwgYExCzAJBgNVBAYTAlVTMQswCQYD
VQQIEwJDQTEVMBMGA1UEChMMT3BlbiB2U3dpdGNoMREwDwYDVQQLEwhzd2l0Y2hj
YTE7MDkGA1UEAxMyT1ZTIHN3aXRjaGNhIENBIENlcnRpZmljYXRlICgyMDEyIE5v
diAzMCAyMjozMjo0MikwHhcNMTQwNjA5MTA1MzA0WhcNMTUwNjA5MTA1MzA0WjCB
izELMAkGA1UEBhMCVVMxCzAJBgNVBAgTAkNBMRUwEwYDVQQKEwxPcGVuIHZTd2l0
Y2gxHzAdBgNVBAsTFk9wZW4gdlN3aXRjaCBjZXJ0aWZpZXIxNzA1BgNVBAMTLnN3
aXRjaCBpZDpmN2E1NDQ5Ni0zZWI3LTQxYTItYjdhNS1hNjM1MzkwYzg1MTAwggEi
MA0GCSqGSIb3DQEBAQUAA4IBDwAwggEKAoIBAQDNUXSMQXvKqlS5OdthSR6GoePK
YQzk7Lv9x2yWMgXxPlVgXQoiId39B92evjLooEaIWnqtDjIFWGDgU0HirZ2sp9qY
BC/5rvMf2y9P40bT7Y6G+0IGdecQ+RDxgADNF9ErdF6QHkh4RlvBjgGljIsI+h3F
3q7hTUfESPpPKoPIOcgerJ04v0bsb5blbz0+deDPWLzmnkic5Oa9cpRkJ2z/ti4a
YtW2RHL31nIy0eVoQ8IVn0eFRJhcGDVMMmq1A+ajkG9c9jM3oyys/fZa60YFbvMT
DHSxP8YxaMt1XPf5yABCZBvXMQteXI5BoRvxr8LYRFpc+qet0unuSFfyvMWnAgMB
AAEwDQYJKoZIhvcNAQEEBQADggEBAG8jrT9iPDj1Ao/z5AmLea0ySOgNARMR05TH
mhtLjPSYwZfim8Y8lNRS5m2myHK1FM7RAxX4iBA0Nn4TcWH1c4TpWHrcrguottdz
u/FijFtFWJYf/iNa+87VEKCsGg6rEtNFyGGTgoy5h9eclUcv0M5cNWU4SLNnokDd
VUXbfcgV2c+AtlcrnQfElirugZ1KBrXviRNLZrADI4Jeu4ZlB2RJbHN7OCFfxZfo
l6fxPVCDyX7Bz5CIpjGTLuHxAOn3nQLEC84kaL65bEhnAvHUEbDD+E3upXlzlQnd
TMasV27vBMVlrzbheSm+pgYpe7j+E5T2QzA7fmdQBnppAI0EbA4=
-----END CERTIFICATE-----
